Certificate:
    Data:
        Version: 3 (0x2)
        Serial Number: 268435656 (0x100000c8)
    Signature Algorithm: sha1WithRSAEncryption
        Issuer: C=DE, ST=Hessen, O=privacyidea, CN=CA001
        Validity
            Not Before: Jan 16 16:54:22 2016 GMT
            Not After : Jan 15 16:54:22 2017 GMT
        Subject: CN=selfservice,CN=user,O=realm1/emailAddress=meine
        Subject Public Key Info:
            Public Key Algorithm: rsaEncryption
                Public-Key: (2048 bit)
                Modulus:
                    00:cf:3c:d4:33:0e:12:c4:e6:da:cd:b6:56:a1:1c:
                    26:bb:26:1c:8a:4a:73:a8:58:8a:b6:1e:b3:8b:99:
                    d2:1d:07:c2:92:89:79:c0:69:d8:c8:df:28:61:98:
                    1e:b3:fe:ae:2b:bd:78:a9:f7:6e:47:dc:a3:a0:16:
                    8c:85:02:c1:4e:92:fd:72:6e:f0:c8:03:29:9b:b8:
                    00:6e:c0:83:95:c8:34:20:36:9c:b3:e5:e4:e6:76:
                    73:a3:1a:ad:40:96:e0:53:54:00:ec:76:79:9a:c6:
                    0d:7e:b6:bd:29:ec:83:f3:cb:89:a4:cb:6c:00:ba:
                    0c:c5:78:0f:ff:69:b8:94:f4:04:70:43:3f:d8:9e:
                    d7:a7:fb:5d:ce:75:8e:da:e7:c4:07:b1:9d:de:6f:
                    88:4b:b6:4d:9a:cf:f9:bc:fa:9f:cd:32:6d:f6:3a:
                    0b:0d:23:42:78:ec:97:42:bf:0e:4d:60:56:e1:d3:
                    02:f2:19:cb:84:57:90:e5:70:a1:a2:83:35:86:e2:
                    da:86:9f:f9:8a:c4:79:b3:52:28:da:cb:bb:34:ca:
                    d3:da:91:4a:cf:8d:76:a2:b2:6b:9b:f9:96:fd:09:
                    2a:da:11:23:4d:f0:cb:d6:b2:b1:0e:12:6c:9a:19:
                    65:98:87:ca:e4:ee:24:ce:44:ac:90:8f:9d:1b:c5:
                    2a:9d
                Exponent: 65537 (0x10001)
        X509v3 extensions:
            X509v3 Key Usage: 
                Digital Signature, Key Encipherment
            X509v3 Basic Constraints: 
                CA:FALSE
            Netscape Cert Type: 
                SSL Server
            Netscape Comment: 
                OpenSSL Generated Server Certificate
            X509v3 Subject Key Identifier: 
                4D:07:90:AD:FF:1D:0D:E7:1A:DD:D6:2E:FA:BA:34:CB:AA:1F:24:C6
            X509v3 Authority Key Identifier: 
                keyid:F4:A7:C0:CC:91:46:AF:64:F3:91:F2:27:F8:C8:B2:6F:8A:87:32:73
                DirName:/C=DE/ST=Hessen/O=privacyidea/CN=CA001
                serial:FB:C8:EB:AC:83:CD:12:07

            X509v3 Extended Key Usage: 
                TLS Web Server Authentication
    Signature Algorithm: sha1WithRSAEncryption
         53:ec:10:79:62:ab:c2:ab:76:e2:c3:9d:1f:bc:13:99:6d:fa:
         e5:30:23:39:d7:95:ba:c5:c2:f3:f4:20:0c:8f:af:d1:a4:e2:
         20:b8:ba:2d:41:31:ea:25:be:b9:1d:34:9f:ad:10:96:9e:64:
         06:ca:b4:c2:54:24:82:c9:b0:55:c3:55:a0:82:25:c3:1d:52:
         a3:22:dd:d3:24:11:e0:a1:92:2d:9d:21:5a:fd:7b:23:d4:e7:
         03:5e:78:1f:1c:75:aa:d6:4c:1b:bb:7c:8e:c1:8c:88:21:96:
         12:cc:2e:0f:b1:84:86:ad:a4:66:96:a8:ed:78:93:0a:89:67:
         46:60:8b:ae:67:96:e7:fa:9f:79:f8:bb:86:04:42:dc:df:d9:
         a7:a6:1e:f6:93:70:d3:a4:a0:45:d5:2f:6c:00:4b:7e:01:91:
         d4:9c:b7:ea:58:38:62:8a:c6:06:42:ba:7a:47:47:42:91:3b:
         f7:09:ea:13:d8:92:f3:93:7b:5a:07:6c:f9:73:81:fe:cf:98:
         a9:e1:d5:9f:40:39:bf:64:86:09:03:dd:e4:f3:c4:76:47:ee:
         dc:3a:3c:ed:92:c4:55:88:89:29:57:42:14:b3:38:0b:47:b0:
         97:fc:39:d5:d0:3e:96:4a:70:cd:ee:ce:39:3f:2f:0d:9a:89:
         ef:e3:62:06
-----BEGIN CERTIFICATE-----
MIIEDzCCAvegAwIBAgIEEAAAyDANBgkqhkiG9w0BAQUFADBEMQswCQYDVQQGEwJE
RTEPMA0GA1UECAwGSGVzc2VuMRQwEgYDVQQKDAtwcml2YWN5aWRlYTEOMAwGA1UE
AwwFQ0EwMDEwHhcNMTYwMTE2MTY1NDIyWhcNMTcwMTE1MTY1NDIyWjA9MSUwIwYD
VQQDExxzZWxmc2VydmljZSxDTj11c2VyLE89cmVhbG0xMRQwEgYJKoZIhvcNAQkB
FgVtZWluZTCCASIwDQYJKoZIhvcNAQEBBQADggEPADCCAQoCggEBAM881DMOEsTm
2s22VqEcJrsmHIpKc6hYirYes4uZ0h0HwpKJecBp2MjfKGGYHrP+riu9eKn3bkfc
o6AWjIUCwU6S/XJu8MgDKZu4AG7Ag5XINCA2nLPl5OZ2c6MarUCW4FNUAOx2eZrG
DX62vSnsg/PLiaTLbAC6DMV4D/9puJT0BHBDP9ie16f7Xc51jtrnxAexnd5viEu2
TZrP+bz6n80ybfY6Cw0jQnjsl0K/Dk1gVuHTAvIZy4RXkOVwoaKDNYbi2oaf+YrE
ebNSKNrLuzTK09qRSs+NdqKya5v5lv0JKtoRI03wy9aysQ4SbJoZZZiHyuTuJM5E
rJCPnRvFKp0CAwEAAaOCAQ4wggEKMAsGA1UdDwQEAwIFoDAJBgNVHRMEAjAAMBEG
CWCGSAGG+EIBAQQEAwIGQDAzBglghkgBhvhCAQ0EJhYkT3BlblNTTCBHZW5lcmF0
ZWQgU2VydmVyIENlcnRpZmljYXRlMB0GA1UdDgQWBBRNB5Ct/x0N5xrd1i76ujTL
qh8kxjB0BgNVHSMEbTBrgBT0p8DMkUavZPOR8if4yLJviocyc6FIpEYwRDELMAkG
A1UEBhMCREUxDzANBgNVBAgMBkhlc3NlbjEUMBIGA1UECgwLcHJpdmFjeWlkZWEx
DjAMBgNVBAMMBUNBMDAxggkA+8jrrIPNEgcwEwYDVR0lBAwwCgYIKwYBBQUHAwEw
DQYJKoZIhvcNAQEFBQADggEBAFPsEHliq8KrduLDnR+8E5lt+uUwIznXlbrFwvP0
IAyPr9Gk4iC4ui1BMeolvrkdNJ+tEJaeZAbKtMJUJILJsFXDVaCCJcMdUqMi3dMk
EeChki2dIVr9eyPU5wNeeB8cdarWTBu7fI7BjIghlhLMLg+xhIatpGaWqO14kwqJ
Z0Zgi65nluf6n3n4u4YEQtzf2aemHvaTcNOkoEXVL2wAS34BkdSct+pYOGKKxgZC
unpHR0KRO/cJ6hPYkvOTe1oHbPlzgf7PmKnh1Z9AOb9khgkD3eTzxHZH7tw6PO2S
xFWIiSlXQhSzOAtHsJf8OdXQPpZKcM3uzjk/Lw2aie/jYgY=
-----END CERTIFICATE-----
