Certificate:
    Data:
        Version: 3 (0x2)
        Serial Number: 268435651 (0x100000c3)
    Signature Algorithm: sha1WithRSAEncryption
        Issuer: C=DE, ST=Hessen, O=privacyidea, CN=CA001
        Validity
            Not Before: Jan 18 11:43:50 2016 GMT
            Not After : Jan 17 11:43:50 2017 GMT
        Subject: C=DE, ST=Hessen, O=privacyidea, CN=requester.localdomain
        Subject Public Key Info:
            Public Key Algorithm: rsaEncryption
                Public-Key: (2048 bit)
                Modulus:
                    00:cd:be:14:4f:fa:ce:01:3f:42:22:1b:1d:9c:af:
                    dd:92:d2:7f:db:6c:b7:3e:39:43:43:6b:13:03:f1:
                    05:f4:07:74:bc:76:69:28:0b:af:19:8e:d7:fc:e3:
                    cd:c6:58:f2:ca:7f:08:6d:53:fc:07:02:44:24:c6:
                    b4:34:4c:8c:04:fe:33:0e:40:e2:20:ba:02:73:5a:
                    f7:f5:4f:63:6e:cc:c6:b6:df:54:1d:37:39:7d:51:
                    36:26:5f:bd:dc:3f:a8:8b:6b:a2:ae:b6:9d:d6:21:
                    e7:df:41:b8:7a:28:2a:68:48:ca:a8:2d:ed:e1:e9:
                    46:5e:5a:72:6d:b4:84:38:87:91:fd:94:11:0b:28:
                    84:c6:c2:2f:2a:fb:01:f9:36:7a:09:75:d1:33:88:
                    3c:73:41:5b:c8:bf:94:89:70:a1:f0:c0:b9:2e:50:
                    53:1e:b1:17:64:69:f4:2d:81:e0:a9:0d:0e:32:e9:
                    ba:55:8a:85:f1:1b:6f:49:79:b4:7f:88:c3:0d:3e:
                    54:88:9b:3d:1f:38:8c:04:f3:ee:6a:63:2b:f5:c6:
                    db:b4:83:aa:c4:78:41:3a:7d:4b:e1:c8:3e:71:ca:
                    1b:61:59:ea:c6:c4:ca:32:5e:c9:e9:bf:12:29:e6:
                    c6:c3:63:fe:a0:55:da:7a:f1:60:98:4d:26:ed:fa:
                    70:2d
                Exponent: 65537 (0x10001)
        X509v3 extensions:
            X509v3 Key Usage: 
                Digital Signature, Key Encipherment
            X509v3 Basic Constraints: 
                CA:FALSE
            Netscape Cert Type: 
                SSL Server
            Netscape Comment: 
                OpenSSL Generated Server Certificate
            X509v3 Subject Key Identifier: 
                53:3F:ED:5D:09:07:B3:65:7B:AB:45:C9:24:5B:09:77:80:0A:96:ED
            X509v3 Authority Key Identifier: 
                keyid:F4:A7:C0:CC:91:46:AF:64:F3:91:F2:27:F8:C8:B2:6F:8A:87:32:73
                DirName:/C=DE/ST=Hessen/O=privacyidea/CN=CA001
                serial:FB:C8:EB:AC:83:CD:12:07

            X509v3 Extended Key Usage: 
                TLS Web Server Authentication
    Signature Algorithm: sha1WithRSAEncryption
         31:e3:cd:83:7d:d8:8b:fe:88:d4:51:f4:75:9c:a6:76:2e:cd:
         6b:4f:ff:ce:01:ae:25:bc:d1:9b:ea:af:b8:97:9f:83:e1:1c:
         da:d0:14:46:d0:ac:2a:cc:41:e6:16:88:9b:4a:5c:67:13:cd:
         10:ef:22:35:30:9e:fd:39:c4:1e:76:25:45:8d:ac:85:0d:01:
         bd:76:f8:de:39:fa:e5:44:4b:28:10:ec:5f:7c:7d:31:5d:77:
         a2:75:f9:3f:80:23:de:8c:49:49:a8:25:f2:64:f2:00:37:44:
         bf:2e:d9:5d:d8:fd:7c:39:d5:07:e1:96:04:5c:b0:f7:67:7a:
         40:a4:6a:52:03:b0:5f:5e:cd:fd:1e:9d:e9:f7:88:58:8f:52:
         76:b5:ba:37:2e:4f:58:61:37:2d:0f:dc:a4:b3:fe:5b:14:17:
         75:9e:18:d2:f3:aa:c4:4d:23:6a:4c:ae:11:0c:dd:ec:1a:af:
         af:d2:9c:f6:72:78:6c:ce:ce:8f:ac:f9:41:2c:71:fa:03:4a:
         7c:fe:26:31:55:c2:7e:13:00:75:14:59:68:d6:4d:d1:1a:92:
         b7:10:e4:10:c5:3b:ce:ac:c9:b5:bc:81:9c:b4:83:c3:d5:05:
         ef:18:b3:90:9a:ea:5d:61:66:dd:ec:2e:f4:7b:22:6c:2c:e6:
         e0:c2:54:f3
-----BEGIN CERTIFICATE-----
MIIEJjCCAw6gAwIBAgIEEAAAwzANBgkqhkiG9w0BAQUFADBEMQswCQYDVQQGEwJE
RTEPMA0GA1UECAwGSGVzc2VuMRQwEgYDVQQKDAtwcml2YWN5aWRlYTEOMAwGA1UE
AwwFQ0EwMDEwHhcNMTYwMTE4MTE0MzUwWhcNMTcwMTE3MTE0MzUwWjBUMQswCQYD
VQQGEwJERTEPMA0GA1UECAwGSGVzc2VuMRQwEgYDVQQKDAtwcml2YWN5aWRlYTEe
MBwGA1UEAwwVcmVxdWVzdGVyLmxvY2FsZG9tYWluMIIBIjANBgkqhkiG9w0BAQEF
AAOCAQ8AMIIBCgKCAQEAzb4UT/rOAT9CIhsdnK/dktJ/22y3PjlDQ2sTA/EF9Ad0
vHZpKAuvGY7X/OPNxljyyn8IbVP8BwJEJMa0NEyMBP4zDkDiILoCc1r39U9jbszG
tt9UHTc5fVE2Jl+93D+oi2uirrad1iHn30G4eigqaEjKqC3t4elGXlpybbSEOIeR
/ZQRCyiExsIvKvsB+TZ6CXXRM4g8c0FbyL+UiXCh8MC5LlBTHrEXZGn0LYHgqQ0O
Mum6VYqF8RtvSXm0f4jDDT5UiJs9HziMBPPuamMr9cbbtIOqxHhBOn1L4cg+ccob
YVnqxsTKMl7J6b8SKebGw2P+oFXaevFgmE0m7fpwLQIDAQABo4IBDjCCAQowCwYD
VR0PBAQDAgWgMAkGA1UdEwQCMAAwEQYJYIZIAYb4QgEBBAQDAgZAMDMGCWCGSAGG
+EIBDQQmFiRPcGVuU1NMIEdlbmVyYXRlZCBTZXJ2ZXIgQ2VydGlmaWNhdGUwHQYD
VR0OBBYEFFM/7V0JB7Nle6tFySRbCXeACpbtMHQGA1UdIwRtMGuAFPSnwMyRRq9k
85HyJ/jIsm+KhzJzoUikRjBEMQswCQYDVQQGEwJERTEPMA0GA1UECAwGSGVzc2Vu
MRQwEgYDVQQKDAtwcml2YWN5aWRlYTEOMAwGA1UEAwwFQ0EwMDGCCQD7yOusg80S
BzATBgNVHSUEDDAKBggrBgEFBQcDATANBgkqhkiG9w0BAQUFAAOCAQEAMePNg33Y
i/6I1FH0dZymdi7Na0//zgGuJbzRm+qvuJefg+Ec2tAURtCsKsxB5haIm0pcZxPN
EO8iNTCe/TnEHnYlRY2shQ0BvXb43jn65URLKBDsX3x9MV13onX5P4Aj3oxJSagl
8mTyADdEvy7ZXdj9fDnVB+GWBFyw92d6QKRqUgOwX17N/R6d6feIWI9SdrW6Ny5P
WGE3LQ/cpLP+WxQXdZ4Y0vOqxE0jakyuEQzd7Bqvr9Kc9nJ4bM7Oj6z5QSxx+gNK
fP4mMVXCfhMAdRRZaNZN0RqStxDkEMU7zqzJtbyBnLSDw9UF7xizkJrqXWFm3ewu
9HsibCzm4MJU8w==
-----END CERTIFICATE-----
