Certificate:
    Data:
        Version: 3 (0x2)
        Serial Number: 268435664 (0x100000d0)
    Signature Algorithm: sha1WithRSAEncryption
        Issuer: C=DE, ST=Hessen, O=privacyidea, CN=CA001
        Validity
            Not Before: Dec 18 17:39:08 2015 GMT
            Not After : Dec 17 17:39:08 2016 GMT
        Subject: CN=Steve Test/emailAddress=steve@openssl.org
        Subject Public Key Info:
            Public Key Algorithm: rsaEncryption
                Public-Key: (2048 bit)
                Modulus:
                    00:d2:81:89:20:51:48:0f:73:f4:11:32:24:d5:1f:
                    1c:fd:5c:f5:b6:e6:c5:f0:52:81:dc:d2:af:66:4a:
                    7c:93:31:61:5c:af:d1:6d:06:70:03:60:7c:72:0c:
                    88:dd:49:cd:9e:02:6c:d2:5a:d7:53:0f:f3:da:be:
                    69:64:b5:0f:0c:00:e3:b3:50:47:a3:b3:9b:ba:13:
                    50:d6:58:5a:4b:ab:39:e0:11:ca:0a:27:67:03:78:
                    22:66:6d:92:1e:1b:5c:49:ae:e6:6b:d1:8e:3b:9d:
                    06:d3:c6:ac:4d:53:43:10:ab:e8:96:c1:87:82:97:
                    99:8f:20:d3:99:12:37:31:84:e1:8a:ff:29:03:5f:
                    22:90:3e:7f:9b:e0:20:c1:ad:dc:ae:4c:39:1a:31:
                    96:17:02:8c:b2:d9:b4:0d:20:12:9b:7d:86:54:fd:
                    33:fd:c1:2a:62:46:f8:60:96:cf:6e:01:6f:22:df:
                    13:47:e7:97:ec:05:72:23:a3:62:f8:fa:ef:ac:9c:
                    72:f0:37:cb:2f:37:cf:90:a8:27:51:86:c6:d7:78:
                    08:8f:7e:25:a2:15:70:a2:fb:1c:b6:15:5e:a0:97:
                    8b:81:4c:09:28:8a:27:3b:94:bc:71:db:5b:71:37:
                    9a:2b:16:e0:6f:b5:c9:f5:4b:4f:20:ba:65:cf:af:
                    ad:ad
                Exponent: 65537 (0x10001)
        X509v3 extensions:
            X509v3 Key Usage: 
                Digital Signature, Key Encipherment
            X509v3 Basic Constraints: 
                CA:FALSE
            Netscape Cert Type: 
                SSL Server
            Netscape Comment: 
                OpenSSL Generated Server Certificate
            X509v3 Subject Key Identifier: 
                E5:25:6D:3E:AF:0D:DD:3F:4C:F2:45:19:39:D5:14:DB:7E:9C:C0:AD
            X509v3 Authority Key Identifier: 
                keyid:F4:A7:C0:CC:91:46:AF:64:F3:91:F2:27:F8:C8:B2:6F:8A:87:32:73
                DirName:/C=DE/ST=Hessen/O=privacyidea/CN=CA001
                serial:FB:C8:EB:AC:83:CD:12:07

            X509v3 Extended Key Usage: 
                TLS Web Server Authentication
    Signature Algorithm: sha1WithRSAEncryption
         7e:2f:5c:8a:f5:d9:87:3e:d3:e1:f1:63:df:cd:cb:e8:7a:5e:
         1f:93:f1:0d:8a:c2:5b:1a:df:76:2d:ad:f6:2e:5e:45:33:75:
         64:6e:e0:32:84:3c:79:55:6c:aa:be:9e:a8:70:ce:fe:ca:da:
         90:bc:4a:d2:75:ce:30:17:b9:fe:1e:fc:b8:91:98:d9:6b:c3:
         4c:3c:3e:47:33:17:a6:66:68:a8:35:b1:1e:0a:0e:4f:49:0d:
         45:0d:97:00:a2:5d:8f:3f:38:44:27:07:12:ae:5f:f9:a6:93:
         6f:59:78:d5:81:03:8d:a4:e9:04:d7:f9:5b:55:f0:26:9d:03:
         08:9a:a8:d8:60:bc:37:1f:b6:29:99:d3:77:9c:28:40:c7:2b:
         3e:fd:a0:f1:8a:7e:0d:2a:e2:fd:8a:2d:2e:90:c6:00:85:ca:
         09:89:4e:fc:07:ad:1f:89:82:70:dc:f4:0c:e0:e2:c4:7a:bb:
         17:52:4e:15:e9:e2:15:a3:73:8e:82:d3:a0:c5:b5:28:d8:a9:
         75:8e:99:83:7c:10:69:83:67:52:34:03:ce:7b:d6:c4:ac:2b:
         97:54:0f:ac:dd:43:b4:ca:0f:23:5d:7f:f4:75:b1:c9:18:bf:
         68:42:a0:35:61:0e:b9:d4:9a:8d:a6:e8:24:7f:fd:92:1a:9e:
         48:b8:22:28
-----BEGIN CERTIFICATE-----
MIIECTCCAvGgAwIBAgIEEAAA0DANBgkqhkiG9w0BAQUFADBEMQswCQYDVQQGEwJE
RTEPMA0GA1UECAwGSGVzc2VuMRQwEgYDVQQKDAtwcml2YWN5aWRlYTEOMAwGA1UE
AwwFQ0EwMDEwHhcNMTUxMjE4MTczOTA4WhcNMTYxMjE3MTczOTA4WjA3MRMwEQYD
VQQDEwpTdGV2ZSBUZXN0MSAwHgYJKoZIhvcNAQkBFhFzdGV2ZUBvcGVuc3NsLm9y
ZzCCASIwDQYJKoZIhvcNAQEBBQADggEPADCCAQoCggEBANKBiSBRSA9z9BEyJNUf
HP1c9bbmxfBSgdzSr2ZKfJMxYVyv0W0GcANgfHIMiN1JzZ4CbNJa11MP89q+aWS1
DwwA47NQR6Ozm7oTUNZYWkurOeARygonZwN4ImZtkh4bXEmu5mvRjjudBtPGrE1T
QxCr6JbBh4KXmY8g05kSNzGE4Yr/KQNfIpA+f5vgIMGt3K5MORoxlhcCjLLZtA0g
Ept9hlT9M/3BKmJG+GCWz24BbyLfE0fnl+wFciOjYvj676yccvA3yy83z5CoJ1GG
xtd4CI9+JaIVcKL7HLYVXqCXi4FMCSiKJzuUvHHbW3E3misW4G+1yfVLTyC6Zc+v
ra0CAwEAAaOCAQ4wggEKMAsGA1UdDwQEAwIFoDAJBgNVHRMEAjAAMBEGCWCGSAGG
+EIBAQQEAwIGQDAzBglghkgBhvhCAQ0EJhYkT3BlblNTTCBHZW5lcmF0ZWQgU2Vy
dmVyIENlcnRpZmljYXRlMB0GA1UdDgQWBBTlJW0+rw3dP0zyRRk51RTbfpzArTB0
BgNVHSMEbTBrgBT0p8DMkUavZPOR8if4yLJviocyc6FIpEYwRDELMAkGA1UEBhMC
REUxDzANBgNVBAgMBkhlc3NlbjEUMBIGA1UECgwLcHJpdmFjeWlkZWExDjAMBgNV
BAMMBUNBMDAxggkA+8jrrIPNEgcwEwYDVR0lBAwwCgYIKwYBBQUHAwEwDQYJKoZI
hvcNAQEFBQADggEBAH4vXIr12Yc+0+HxY9/Ny+h6Xh+T8Q2Kwlsa33YtrfYuXkUz
dWRu4DKEPHlVbKq+nqhwzv7K2pC8StJ1zjAXuf4e/LiRmNlrw0w8PkczF6ZmaKg1
sR4KDk9JDUUNlwCiXY8/OEQnBxKuX/mmk29ZeNWBA42k6QTX+VtV8CadAwiaqNhg
vDcftimZ03ecKEDHKz79oPGKfg0q4v2KLS6QxgCFygmJTvwHrR+JgnDc9Azg4sR6
uxdSThXp4hWjc46C06DFtSjYqXWOmYN8EGmDZ1I0A8571sSsK5dUD6zdQ7TKDyNd
f/R1sckYv2hCoDVhDrnUmo2m6CR//ZIanki4Iig=
-----END CERTIFICATE-----
