Certificate:
    Data:
        Version: 3 (0x2)
        Serial Number: 268435661 (0x100000cd)
    Signature Algorithm: sha1WithRSAEncryption
        Issuer: C=DE, ST=Hessen, O=privacyidea, CN=CA001
        Validity
            Not Before: Dec 18 17:37:45 2015 GMT
            Not After : Dec 17 17:37:45 2016 GMT
        Subject: C=DE, ST=Hessen, O=privacyidea, CN=requester.localdomain
        Subject Public Key Info:
            Public Key Algorithm: rsaEncryption
                Public-Key: (2048 bit)
                Modulus:
                    00:cd:be:14:4f:fa:ce:01:3f:42:22:1b:1d:9c:af:
                    dd:92:d2:7f:db:6c:b7:3e:39:43:43:6b:13:03:f1:
                    05:f4:07:74:bc:76:69:28:0b:af:19:8e:d7:fc:e3:
                    cd:c6:58:f2:ca:7f:08:6d:53:fc:07:02:44:24:c6:
                    b4:34:4c:8c:04:fe:33:0e:40:e2:20:ba:02:73:5a:
                    f7:f5:4f:63:6e:cc:c6:b6:df:54:1d:37:39:7d:51:
                    36:26:5f:bd:dc:3f:a8:8b:6b:a2:ae:b6:9d:d6:21:
                    e7:df:41:b8:7a:28:2a:68:48:ca:a8:2d:ed:e1:e9:
                    46:5e:5a:72:6d:b4:84:38:87:91:fd:94:11:0b:28:
                    84:c6:c2:2f:2a:fb:01:f9:36:7a:09:75:d1:33:88:
                    3c:73:41:5b:c8:bf:94:89:70:a1:f0:c0:b9:2e:50:
                    53:1e:b1:17:64:69:f4:2d:81:e0:a9:0d:0e:32:e9:
                    ba:55:8a:85:f1:1b:6f:49:79:b4:7f:88:c3:0d:3e:
                    54:88:9b:3d:1f:38:8c:04:f3:ee:6a:63:2b:f5:c6:
                    db:b4:83:aa:c4:78:41:3a:7d:4b:e1:c8:3e:71:ca:
                    1b:61:59:ea:c6:c4:ca:32:5e:c9:e9:bf:12:29:e6:
                    c6:c3:63:fe:a0:55:da:7a:f1:60:98:4d:26:ed:fa:
                    70:2d
                Exponent: 65537 (0x10001)
        X509v3 extensions:
            X509v3 Key Usage: 
                Digital Signature, Key Encipherment
            X509v3 Basic Constraints: 
                CA:FALSE
            Netscape Cert Type: 
                SSL Server
            Netscape Comment: 
                OpenSSL Generated Server Certificate
            X509v3 Subject Key Identifier: 
                53:3F:ED:5D:09:07:B3:65:7B:AB:45:C9:24:5B:09:77:80:0A:96:ED
            X509v3 Authority Key Identifier: 
                keyid:F4:A7:C0:CC:91:46:AF:64:F3:91:F2:27:F8:C8:B2:6F:8A:87:32:73
                DirName:/C=DE/ST=Hessen/O=privacyidea/CN=CA001
                serial:FB:C8:EB:AC:83:CD:12:07

            X509v3 Extended Key Usage: 
                TLS Web Server Authentication
    Signature Algorithm: sha1WithRSAEncryption
         1f:e9:6c:19:2d:51:74:d0:e2:f5:40:0b:e0:57:9d:06:d7:23:
         d9:c3:4f:6a:c7:83:c4:1f:7c:33:46:1c:1c:0e:84:e9:a2:7b:
         30:3e:09:c7:f3:8a:16:20:27:cb:4d:6d:8b:5a:8a:bd:43:67:
         03:79:b8:99:2a:1a:20:1e:01:a3:ed:82:61:25:88:59:46:ca:
         3b:90:35:c5:11:aa:e1:54:bb:db:ea:6a:de:d0:b2:a7:e1:76:
         3e:9d:23:50:c5:a8:b2:38:85:2c:26:e1:bc:a8:6a:d8:59:1b:
         c2:29:88:b7:19:af:f6:a6:56:d2:7b:27:4d:e4:db:5b:8b:7c:
         72:79:9e:e8:07:fa:7e:1b:b7:a9:fd:97:f9:06:bf:ea:a0:32:
         a4:75:b9:d0:80:3e:07:8a:47:ed:c9:7f:5e:12:b8:97:c3:b2:
         f4:3e:16:e9:bf:51:d7:91:c7:f2:88:1d:71:91:a0:11:b9:76:
         64:14:30:8d:86:ef:0f:63:77:22:4c:96:8a:9f:f0:d4:5a:5d:
         c7:42:79:1b:bb:3d:00:c9:07:d1:b1:b1:42:6e:8f:9b:87:c0:
         62:27:32:fc:22:28:e8:c9:fe:6c:3f:77:a5:2c:0d:1d:9c:59:
         df:ff:86:63:18:fc:1b:a9:e6:f8:ee:65:ab:65:11:6e:08:82:
         47:dd:68:69
-----BEGIN CERTIFICATE-----
MIIEJjCCAw6gAwIBAgIEEAAAzTANBgkqhkiG9w0BAQUFADBEMQswCQYDVQQGEwJE
RTEPMA0GA1UECAwGSGVzc2VuMRQwEgYDVQQKDAtwcml2YWN5aWRlYTEOMAwGA1UE
AwwFQ0EwMDEwHhcNMTUxMjE4MTczNzQ1WhcNMTYxMjE3MTczNzQ1WjBUMQswCQYD
VQQGEwJERTEPMA0GA1UECAwGSGVzc2VuMRQwEgYDVQQKDAtwcml2YWN5aWRlYTEe
MBwGA1UEAwwVcmVxdWVzdGVyLmxvY2FsZG9tYWluMIIBIjANBgkqhkiG9w0BAQEF
AAOCAQ8AMIIBCgKCAQEAzb4UT/rOAT9CIhsdnK/dktJ/22y3PjlDQ2sTA/EF9Ad0
vHZpKAuvGY7X/OPNxljyyn8IbVP8BwJEJMa0NEyMBP4zDkDiILoCc1r39U9jbszG
tt9UHTc5fVE2Jl+93D+oi2uirrad1iHn30G4eigqaEjKqC3t4elGXlpybbSEOIeR
/ZQRCyiExsIvKvsB+TZ6CXXRM4g8c0FbyL+UiXCh8MC5LlBTHrEXZGn0LYHgqQ0O
Mum6VYqF8RtvSXm0f4jDDT5UiJs9HziMBPPuamMr9cbbtIOqxHhBOn1L4cg+ccob
YVnqxsTKMl7J6b8SKebGw2P+oFXaevFgmE0m7fpwLQIDAQABo4IBDjCCAQowCwYD
VR0PBAQDAgWgMAkGA1UdEwQCMAAwEQYJYIZIAYb4QgEBBAQDAgZAMDMGCWCGSAGG
+EIBDQQmFiRPcGVuU1NMIEdlbmVyYXRlZCBTZXJ2ZXIgQ2VydGlmaWNhdGUwHQYD
VR0OBBYEFFM/7V0JB7Nle6tFySRbCXeACpbtMHQGA1UdIwRtMGuAFPSnwMyRRq9k
85HyJ/jIsm+KhzJzoUikRjBEMQswCQYDVQQGEwJERTEPMA0GA1UECAwGSGVzc2Vu
MRQwEgYDVQQKDAtwcml2YWN5aWRlYTEOMAwGA1UEAwwFQ0EwMDGCCQD7yOusg80S
BzATBgNVHSUEDDAKBggrBgEFBQcDATANBgkqhkiG9w0BAQUFAAOCAQEAH+lsGS1R
dNDi9UAL4FedBtcj2cNPaseDxB98M0YcHA6E6aJ7MD4Jx/OKFiAny01ti1qKvUNn
A3m4mSoaIB4Bo+2CYSWIWUbKO5A1xRGq4VS72+pq3tCyp+F2Pp0jUMWosjiFLCbh
vKhq2FkbwimItxmv9qZW0nsnTeTbW4t8cnme6Af6fhu3qf2X+Qa/6qAypHW50IA+
B4pH7cl/XhK4l8Oy9D4W6b9R15HH8ogdcZGgEbl2ZBQwjYbvD2N3IkyWip/w1Fpd
x0J5G7s9AMkH0bGxQm6Pm4fAYicy/CIo6Mn+bD93pSwNHZxZ3/+GYxj8G6nm+O5l
q2URbgiCR91oaQ==
-----END CERTIFICATE-----
