Certificate:
    Data:
        Version: 3 (0x2)
        Serial Number: 268435663 (0x100000cf)
    Signature Algorithm: sha1WithRSAEncryption
        Issuer: C=DE, ST=Hessen, O=privacyidea, CN=CA001
        Validity
            Not Before: Dec 18 17:39:07 2015 GMT
            Not After : Dec 17 17:39:07 2016 GMT
        Subject: C=DE, ST=Hessen, O=privacyidea, CN=usercert
        Subject Public Key Info:
            Public Key Algorithm: rsaEncryption
                Public-Key: (2048 bit)
                Modulus:
                    00:dc:2f:d1:5f:29:97:d4:7c:c3:53:c8:30:bd:4b:
                    67:70:2c:24:6b:b8:5e:eb:21:7a:48:12:56:7c:81:
                    5c:48:75:b6:68:eb:f6:f2:98:4e:50:51:d1:7f:6c:
                    73:f3:0a:a7:ae:be:48:5e:e5:d6:e1:d9:2a:7c:32:
                    6e:4e:fd:08:f6:5a:54:49:23:73:c3:b9:07:18:d1:
                    ef:b3:ac:f8:8a:dc:94:96:a4:90:3a:8e:74:df:e6:
                    0d:37:1b:bd:5b:b7:25:1a:56:39:da:6f:91:aa:5e:
                    1c:74:f3:f9:7c:14:01:83:12:65:76:c7:bb:fe:36:
                    5b:95:e9:72:65:83:ed:3e:98:30:71:fa:87:dd:a3:
                    36:5a:30:03:2e:26:e0:61:d1:bf:02:3f:b6:06:1f:
                    4a:89:28:1c:5c:a2:ff:4e:be:94:e6:8c:e0:da:82:
                    f1:9d:29:32:48:30:73:b4:04:f6:42:1e:be:f7:e2:
                    32:32:27:3c:9d:89:2f:70:3e:85:9a:6f:5c:c5:09:
                    c0:8c:32:2f:72:22:c9:d2:95:1f:b6:ac:72:60:72:
                    b7:82:4d:6b:ce:5b:e3:00:d0:d2:2f:58:c6:e0:10:
                    e5:51:ca:4d:3b:2e:e6:7e:ab:84:d6:56:f1:93:35:
                    a0:93:64:26:81:75:2f:91:b5:16:06:38:0b:db:cc:
                    2d:07
                Exponent: 65537 (0x10001)
        X509v3 extensions:
            X509v3 Key Usage: 
                Digital Signature, Key Encipherment
            X509v3 Basic Constraints: 
                CA:FALSE
            Netscape Cert Type: 
                SSL Server
            Netscape Comment: 
                OpenSSL Generated Server Certificate
            X509v3 Subject Key Identifier: 
                FC:14:D1:F0:4B:8D:00:90:F2:F5:B8:71:9E:4E:97:C3:92:54:AD:0B
            X509v3 Authority Key Identifier: 
                keyid:F4:A7:C0:CC:91:46:AF:64:F3:91:F2:27:F8:C8:B2:6F:8A:87:32:73
                DirName:/C=DE/ST=Hessen/O=privacyidea/CN=CA001
                serial:FB:C8:EB:AC:83:CD:12:07

            X509v3 Extended Key Usage: 
                TLS Web Server Authentication
    Signature Algorithm: sha1WithRSAEncryption
         5e:cd:60:d7:05:8a:54:6c:a0:0d:f4:73:7a:82:81:90:ad:7f:
         71:58:3f:a1:86:4b:fd:b8:52:b7:ff:57:7e:3e:41:ac:45:a7:
         56:f5:6c:e1:5d:95:de:e1:6e:1c:a6:a0:e6:b3:b6:b6:52:bd:
         e3:8f:5a:0d:75:28:ec:bf:5a:8e:0b:a1:c5:19:47:5c:10:c5:
         de:0f:ec:b9:3a:93:d2:e4:d4:29:33:51:4c:ed:ce:5a:32:9e:
         73:f6:5c:a4:e0:51:35:6d:9d:99:43:c8:1e:88:72:3c:ce:f3:
         87:b5:7b:4a:22:34:a8:28:18:c1:20:a0:83:0c:84:ac:88:82:
         b2:7c:c4:7f:fc:0c:99:e8:13:ce:f9:95:52:20:c9:3c:f5:13:
         9d:59:6d:d1:75:69:6c:bb:b1:78:03:3b:a0:8f:04:fc:a5:e9:
         ed:ba:2b:5c:60:f2:d2:d2:f2:ce:77:83:0c:8e:b0:ad:4b:02:
         72:e6:06:99:63:36:3e:4b:f3:8c:14:2b:4b:64:27:e1:65:3e:
         e7:0f:30:6d:06:8c:20:96:58:b4:38:71:57:de:c9:5a:74:b0:
         b8:44:29:70:d9:0f:b0:49:d3:81:87:60:b0:1b:be:fc:96:12:
         2a:0f:d5:6a:8f:8b:57:88:56:77:90:30:28:5d:da:85:97:07:
         2e:ad:4c:dc
-----BEGIN CERTIFICATE-----
MIIEGTCCAwGgAwIBAgIEEAAAzzANBgkqhkiG9w0BAQUFADBEMQswCQYDVQQGEwJE
RTEPMA0GA1UECAwGSGVzc2VuMRQwEgYDVQQKDAtwcml2YWN5aWRlYTEOMAwGA1UE
AwwFQ0EwMDEwHhcNMTUxMjE4MTczOTA3WhcNMTYxMjE3MTczOTA3WjBHMQswCQYD
VQQGEwJERTEPMA0GA1UECAwGSGVzc2VuMRQwEgYDVQQKDAtwcml2YWN5aWRlYTER
MA8GA1UEAwwIdXNlcmNlcnQwggEiMA0GCSqGSIb3DQEBAQUAA4IBDwAwggEKAoIB
AQDcL9FfKZfUfMNTyDC9S2dwLCRruF7rIXpIElZ8gVxIdbZo6/bymE5QUdF/bHPz
Cqeuvkhe5dbh2Sp8Mm5O/Qj2WlRJI3PDuQcY0e+zrPiK3JSWpJA6jnTf5g03G71b
tyUaVjnab5GqXhx08/l8FAGDEmV2x7v+NluV6XJlg+0+mDBx+ofdozZaMAMuJuBh
0b8CP7YGH0qJKBxcov9OvpTmjODagvGdKTJIMHO0BPZCHr734jIyJzydiS9wPoWa
b1zFCcCMMi9yIsnSlR+2rHJgcreCTWvOW+MA0NIvWMbgEOVRyk07LuZ+q4TWVvGT
NaCTZCaBdS+RtRYGOAvbzC0HAgMBAAGjggEOMIIBCjALBgNVHQ8EBAMCBaAwCQYD
VR0TBAIwADARBglghkgBhvhCAQEEBAMCBkAwMwYJYIZIAYb4QgENBCYWJE9wZW5T
U0wgR2VuZXJhdGVkIFNlcnZlciBDZXJ0aWZpY2F0ZTAdBgNVHQ4EFgQU/BTR8EuN
AJDy9bhxnk6Xw5JUrQswdAYDVR0jBG0wa4AU9KfAzJFGr2TzkfIn+Miyb4qHMnOh
SKRGMEQxCzAJBgNVBAYTAkRFMQ8wDQYDVQQIDAZIZXNzZW4xFDASBgNVBAoMC3By
aXZhY3lpZGVhMQ4wDAYDVQQDDAVDQTAwMYIJAPvI66yDzRIHMBMGA1UdJQQMMAoG
CCsGAQUFBwMBMA0GCSqGSIb3DQEBBQUAA4IBAQBezWDXBYpUbKAN9HN6goGQrX9x
WD+hhkv9uFK3/1d+PkGsRadW9WzhXZXe4W4cpqDms7a2Ur3jj1oNdSjsv1qOC6HF
GUdcEMXeD+y5OpPS5NQpM1FM7c5aMp5z9lyk4FE1bZ2ZQ8geiHI8zvOHtXtKIjSo
KBjBIKCDDISsiIKyfMR//AyZ6BPO+ZVSIMk89ROdWW3RdWlsu7F4AzugjwT8pent
uitcYPLS0vLOd4MMjrCtSwJy5gaZYzY+S/OMFCtLZCfhZT7nDzBtBowglli0OHFX
3sladLC4RClw2Q+wSdOBh2CwG778lhIqD9Vqj4tXiFZ3kDAoXdqFlwcurUzc
-----END CERTIFICATE-----
