Certificate:
    Data:
        Version: 3 (0x2)
        Serial Number: 268435657 (0x100000c9)
    Signature Algorithm: sha1WithRSAEncryption
        Issuer: C=DE, ST=Hessen, O=privacyidea, CN=CA001
        Validity
            Not Before: Jan  7 16:01:28 2016 GMT
            Not After : Jan  6 16:01:28 2017 GMT
        Subject: CN=Steve Test/emailAddress=steve@openssl.org
        Subject Public Key Info:
            Public Key Algorithm: rsaEncryption
                Public-Key: (2048 bit)
                Modulus:
                    00:d2:81:89:20:51:48:0f:73:f4:11:32:24:d5:1f:
                    1c:fd:5c:f5:b6:e6:c5:f0:52:81:dc:d2:af:66:4a:
                    7c:93:31:61:5c:af:d1:6d:06:70:03:60:7c:72:0c:
                    88:dd:49:cd:9e:02:6c:d2:5a:d7:53:0f:f3:da:be:
                    69:64:b5:0f:0c:00:e3:b3:50:47:a3:b3:9b:ba:13:
                    50:d6:58:5a:4b:ab:39:e0:11:ca:0a:27:67:03:78:
                    22:66:6d:92:1e:1b:5c:49:ae:e6:6b:d1:8e:3b:9d:
                    06:d3:c6:ac:4d:53:43:10:ab:e8:96:c1:87:82:97:
                    99:8f:20:d3:99:12:37:31:84:e1:8a:ff:29:03:5f:
                    22:90:3e:7f:9b:e0:20:c1:ad:dc:ae:4c:39:1a:31:
                    96:17:02:8c:b2:d9:b4:0d:20:12:9b:7d:86:54:fd:
                    33:fd:c1:2a:62:46:f8:60:96:cf:6e:01:6f:22:df:
                    13:47:e7:97:ec:05:72:23:a3:62:f8:fa:ef:ac:9c:
                    72:f0:37:cb:2f:37:cf:90:a8:27:51:86:c6:d7:78:
                    08:8f:7e:25:a2:15:70:a2:fb:1c:b6:15:5e:a0:97:
                    8b:81:4c:09:28:8a:27:3b:94:bc:71:db:5b:71:37:
                    9a:2b:16:e0:6f:b5:c9:f5:4b:4f:20:ba:65:cf:af:
                    ad:ad
                Exponent: 65537 (0x10001)
        X509v3 extensions:
            X509v3 Key Usage: 
                Digital Signature, Key Encipherment
            X509v3 Basic Constraints: 
                CA:FALSE
            Netscape Cert Type: 
                SSL Server
            Netscape Comment: 
                OpenSSL Generated Server Certificate
            X509v3 Subject Key Identifier: 
                E5:25:6D:3E:AF:0D:DD:3F:4C:F2:45:19:39:D5:14:DB:7E:9C:C0:AD
            X509v3 Authority Key Identifier: 
                keyid:F4:A7:C0:CC:91:46:AF:64:F3:91:F2:27:F8:C8:B2:6F:8A:87:32:73
                DirName:/C=DE/ST=Hessen/O=privacyidea/CN=CA001
                serial:FB:C8:EB:AC:83:CD:12:07

            X509v3 Extended Key Usage: 
                TLS Web Server Authentication
    Signature Algorithm: sha1WithRSAEncryption
         32:a4:da:de:f8:61:eb:a9:16:fa:8f:79:35:fd:e8:da:cb:8e:
         ea:95:5e:52:51:f4:c3:47:16:6b:7a:82:d6:52:84:39:88:9e:
         8c:43:3d:ba:b0:22:26:e2:17:fd:46:2d:17:b7:f7:85:06:95:
         be:e4:76:6b:06:c9:b7:6a:d4:80:49:31:05:24:03:51:48:4c:
         94:be:4f:b5:c4:02:ae:ab:5f:c2:c0:e2:ee:49:84:67:d4:f1:
         a5:e9:1b:85:14:66:5d:b1:5f:16:91:e5:97:1e:da:47:a0:45:
         20:d3:f9:41:03:a7:fb:0b:cd:79:29:f0:75:76:ce:c6:5d:5c:
         c4:20:91:de:59:09:7e:f2:18:1a:ad:0c:bd:61:6c:64:80:b7:
         e2:3c:3a:13:fa:23:87:0c:68:08:8b:e5:d0:98:a0:81:a0:b5:
         66:1f:08:ce:0a:a9:c6:83:13:d9:61:43:8d:4d:27:e1:36:84:
         43:db:e3:37:63:7c:90:a8:6c:40:77:93:e5:f5:44:35:41:08:
         a5:40:fb:f9:4b:3c:e0:ea:4e:fb:eb:c5:c0:48:1f:b9:19:72:
         33:66:4a:76:00:f1:17:97:e6:54:9e:af:9a:77:f5:b5:90:59:
         27:3b:70:86:2b:3b:85:68:66:bd:0f:92:08:4b:c7:5a:85:c4:
         0f:76:e4:9a
-----BEGIN CERTIFICATE-----
MIIECTCCAvGgAwIBAgIEEAAAyTANBgkqhkiG9w0BAQUFADBEMQswCQYDVQQGEwJE
RTEPMA0GA1UECAwGSGVzc2VuMRQwEgYDVQQKDAtwcml2YWN5aWRlYTEOMAwGA1UE
AwwFQ0EwMDEwHhcNMTYwMTA3MTYwMTI4WhcNMTcwMTA2MTYwMTI4WjA3MRMwEQYD
VQQDEwpTdGV2ZSBUZXN0MSAwHgYJKoZIhvcNAQkBFhFzdGV2ZUBvcGVuc3NsLm9y
ZzCCASIwDQYJKoZIhvcNAQEBBQADggEPADCCAQoCggEBANKBiSBRSA9z9BEyJNUf
HP1c9bbmxfBSgdzSr2ZKfJMxYVyv0W0GcANgfHIMiN1JzZ4CbNJa11MP89q+aWS1
DwwA47NQR6Ozm7oTUNZYWkurOeARygonZwN4ImZtkh4bXEmu5mvRjjudBtPGrE1T
QxCr6JbBh4KXmY8g05kSNzGE4Yr/KQNfIpA+f5vgIMGt3K5MORoxlhcCjLLZtA0g
Ept9hlT9M/3BKmJG+GCWz24BbyLfE0fnl+wFciOjYvj676yccvA3yy83z5CoJ1GG
xtd4CI9+JaIVcKL7HLYVXqCXi4FMCSiKJzuUvHHbW3E3misW4G+1yfVLTyC6Zc+v
ra0CAwEAAaOCAQ4wggEKMAsGA1UdDwQEAwIFoDAJBgNVHRMEAjAAMBEGCWCGSAGG
+EIBAQQEAwIGQDAzBglghkgBhvhCAQ0EJhYkT3BlblNTTCBHZW5lcmF0ZWQgU2Vy
dmVyIENlcnRpZmljYXRlMB0GA1UdDgQWBBTlJW0+rw3dP0zyRRk51RTbfpzArTB0
BgNVHSMEbTBrgBT0p8DMkUavZPOR8if4yLJviocyc6FIpEYwRDELMAkGA1UEBhMC
REUxDzANBgNVBAgMBkhlc3NlbjEUMBIGA1UECgwLcHJpdmFjeWlkZWExDjAMBgNV
BAMMBUNBMDAxggkA+8jrrIPNEgcwEwYDVR0lBAwwCgYIKwYBBQUHAwEwDQYJKoZI
hvcNAQEFBQADggEBADKk2t74YeupFvqPeTX96NrLjuqVXlJR9MNHFmt6gtZShDmI
noxDPbqwIibiF/1GLRe394UGlb7kdmsGybdq1IBJMQUkA1FITJS+T7XEAq6rX8LA
4u5JhGfU8aXpG4UUZl2xXxaR5Zce2kegRSDT+UEDp/sLzXkp8HV2zsZdXMQgkd5Z
CX7yGBqtDL1hbGSAt+I8OhP6I4cMaAiL5dCYoIGgtWYfCM4KqcaDE9lhQ41NJ+E2
hEPb4zdjfJCobEB3k+X1RDVBCKVA+/lLPODqTvvrxcBIH7kZcjNmSnYA8ReX5lSe
r5p39bWQWSc7cIYrO4VoZr0PkghLx1qFxA925Jo=
-----END CERTIFICATE-----
