Certificate:
    Data:
        Version: 3 (0x2)
        Serial Number: 268435659 (0x100000cb)
    Signature Algorithm: sha1WithRSAEncryption
        Issuer: C=DE, ST=Hessen, O=privacyidea, CN=CA001
        Validity
            Not Before: Jan  7 16:11:27 2016 GMT
            Not After : Jan  6 16:11:27 2017 GMT
        Subject: CN=selfservice,CN=user,O=realm1/emailAddress=meine
        Subject Public Key Info:
            Public Key Algorithm: rsaEncryption
                Public-Key: (2048 bit)
                Modulus:
                    00:cf:3c:d4:33:0e:12:c4:e6:da:cd:b6:56:a1:1c:
                    26:bb:26:1c:8a:4a:73:a8:58:8a:b6:1e:b3:8b:99:
                    d2:1d:07:c2:92:89:79:c0:69:d8:c8:df:28:61:98:
                    1e:b3:fe:ae:2b:bd:78:a9:f7:6e:47:dc:a3:a0:16:
                    8c:85:02:c1:4e:92:fd:72:6e:f0:c8:03:29:9b:b8:
                    00:6e:c0:83:95:c8:34:20:36:9c:b3:e5:e4:e6:76:
                    73:a3:1a:ad:40:96:e0:53:54:00:ec:76:79:9a:c6:
                    0d:7e:b6:bd:29:ec:83:f3:cb:89:a4:cb:6c:00:ba:
                    0c:c5:78:0f:ff:69:b8:94:f4:04:70:43:3f:d8:9e:
                    d7:a7:fb:5d:ce:75:8e:da:e7:c4:07:b1:9d:de:6f:
                    88:4b:b6:4d:9a:cf:f9:bc:fa:9f:cd:32:6d:f6:3a:
                    0b:0d:23:42:78:ec:97:42:bf:0e:4d:60:56:e1:d3:
                    02:f2:19:cb:84:57:90:e5:70:a1:a2:83:35:86:e2:
                    da:86:9f:f9:8a:c4:79:b3:52:28:da:cb:bb:34:ca:
                    d3:da:91:4a:cf:8d:76:a2:b2:6b:9b:f9:96:fd:09:
                    2a:da:11:23:4d:f0:cb:d6:b2:b1:0e:12:6c:9a:19:
                    65:98:87:ca:e4:ee:24:ce:44:ac:90:8f:9d:1b:c5:
                    2a:9d
                Exponent: 65537 (0x10001)
        X509v3 extensions:
            X509v3 Key Usage: 
                Digital Signature, Key Encipherment
            X509v3 Basic Constraints: 
                CA:FALSE
            Netscape Cert Type: 
                SSL Server
            Netscape Comment: 
                OpenSSL Generated Server Certificate
            X509v3 Subject Key Identifier: 
                4D:07:90:AD:FF:1D:0D:E7:1A:DD:D6:2E:FA:BA:34:CB:AA:1F:24:C6
            X509v3 Authority Key Identifier: 
                keyid:F4:A7:C0:CC:91:46:AF:64:F3:91:F2:27:F8:C8:B2:6F:8A:87:32:73
                DirName:/C=DE/ST=Hessen/O=privacyidea/CN=CA001
                serial:FB:C8:EB:AC:83:CD:12:07

            X509v3 Extended Key Usage: 
                TLS Web Server Authentication
    Signature Algorithm: sha1WithRSAEncryption
         b0:29:a6:5c:25:fa:83:25:bf:66:f5:47:22:10:7c:c0:ef:ba:
         1c:39:88:63:29:69:d5:5f:fc:2e:22:b7:65:22:c7:22:58:f2:
         de:ee:c5:63:d2:fd:6a:62:06:c6:9e:2c:f8:7c:b4:70:97:9b:
         51:04:01:49:0f:fc:fe:de:45:02:55:ea:b7:31:a6:c1:dc:77:
         3c:50:55:ec:05:4a:a5:85:76:17:a6:1c:b1:c1:1d:db:35:e2:
         20:25:2a:ab:77:22:58:c5:8c:06:09:77:6d:b1:12:f9:f5:ff:
         ad:b6:24:bb:3f:35:32:7a:43:13:3a:71:9e:94:8a:0e:3c:58:
         1f:07:a6:60:ed:60:dc:8a:32:c6:48:73:6b:c6:42:08:0f:31:
         44:6b:56:08:d8:b5:d9:a0:ac:a5:dc:43:b9:29:46:c7:06:d1:
         c7:f2:9b:40:a4:78:40:60:05:4b:c7:fe:4e:e5:a2:0f:56:1b:
         53:1f:ba:a7:51:0a:fd:28:07:90:02:20:b5:9c:78:69:11:2a:
         f8:fa:0e:4f:23:c7:1b:e2:ac:e4:4c:86:b7:50:63:7d:bf:46:
         1c:cf:d0:6e:1e:d7:6f:c1:ce:90:4d:47:59:b9:17:b9:e3:93:
         fa:f0:f7:28:8c:f6:1d:62:ab:77:01:04:ce:c5:67:f9:ec:b8:
         6f:f5:20:5a
-----BEGIN CERTIFICATE-----
MIIEDzCCAvegAwIBAgIEEAAAyzANBgkqhkiG9w0BAQUFADBEMQswCQYDVQQGEwJE
RTEPMA0GA1UECAwGSGVzc2VuMRQwEgYDVQQKDAtwcml2YWN5aWRlYTEOMAwGA1UE
AwwFQ0EwMDEwHhcNMTYwMTA3MTYxMTI3WhcNMTcwMTA2MTYxMTI3WjA9MSUwIwYD
VQQDExxzZWxmc2VydmljZSxDTj11c2VyLE89cmVhbG0xMRQwEgYJKoZIhvcNAQkB
FgVtZWluZTCCASIwDQYJKoZIhvcNAQEBBQADggEPADCCAQoCggEBAM881DMOEsTm
2s22VqEcJrsmHIpKc6hYirYes4uZ0h0HwpKJecBp2MjfKGGYHrP+riu9eKn3bkfc
o6AWjIUCwU6S/XJu8MgDKZu4AG7Ag5XINCA2nLPl5OZ2c6MarUCW4FNUAOx2eZrG
DX62vSnsg/PLiaTLbAC6DMV4D/9puJT0BHBDP9ie16f7Xc51jtrnxAexnd5viEu2
TZrP+bz6n80ybfY6Cw0jQnjsl0K/Dk1gVuHTAvIZy4RXkOVwoaKDNYbi2oaf+YrE
ebNSKNrLuzTK09qRSs+NdqKya5v5lv0JKtoRI03wy9aysQ4SbJoZZZiHyuTuJM5E
rJCPnRvFKp0CAwEAAaOCAQ4wggEKMAsGA1UdDwQEAwIFoDAJBgNVHRMEAjAAMBEG
CWCGSAGG+EIBAQQEAwIGQDAzBglghkgBhvhCAQ0EJhYkT3BlblNTTCBHZW5lcmF0
ZWQgU2VydmVyIENlcnRpZmljYXRlMB0GA1UdDgQWBBRNB5Ct/x0N5xrd1i76ujTL
qh8kxjB0BgNVHSMEbTBrgBT0p8DMkUavZPOR8if4yLJviocyc6FIpEYwRDELMAkG
A1UEBhMCREUxDzANBgNVBAgMBkhlc3NlbjEUMBIGA1UECgwLcHJpdmFjeWlkZWEx
DjAMBgNVBAMMBUNBMDAxggkA+8jrrIPNEgcwEwYDVR0lBAwwCgYIKwYBBQUHAwEw
DQYJKoZIhvcNAQEFBQADggEBALApplwl+oMlv2b1RyIQfMDvuhw5iGMpadVf/C4i
t2UixyJY8t7uxWPS/WpiBsaeLPh8tHCXm1EEAUkP/P7eRQJV6rcxpsHcdzxQVewF
SqWFdhemHLHBHds14iAlKqt3IljFjAYJd22xEvn1/622JLs/NTJ6QxM6cZ6Uig48
WB8HpmDtYNyKMsZIc2vGQggPMURrVgjYtdmgrKXcQ7kpRscG0cfym0CkeEBgBUvH
/k7log9WG1MfuqdRCv0oB5ACILWceGkRKvj6Dk8jxxvirORMhrdQY32/RhzP0G4e
12/BzpBNR1m5F7njk/rw9yiM9h1iq3cBBM7FZ/nsuG/1IFo=
-----END CERTIFICATE-----
