Certificate:
    Data:
        Version: 3 (0x2)
        Serial Number: 268435654 (0x100000c6)
    Signature Algorithm: sha1WithRSAEncryption
        Issuer: C=DE, ST=Hessen, O=privacyidea, CN=CA001
        Validity
            Not Before: Jan 18 11:47:25 2016 GMT
            Not After : Jan 17 11:47:25 2017 GMT
        Subject: C=DE, ST=Hessen, O=privacyidea, CN=requester.localdomain
        Subject Public Key Info:
            Public Key Algorithm: rsaEncryption
                Public-Key: (2048 bit)
                Modulus:
                    00:cd:be:14:4f:fa:ce:01:3f:42:22:1b:1d:9c:af:
                    dd:92:d2:7f:db:6c:b7:3e:39:43:43:6b:13:03:f1:
                    05:f4:07:74:bc:76:69:28:0b:af:19:8e:d7:fc:e3:
                    cd:c6:58:f2:ca:7f:08:6d:53:fc:07:02:44:24:c6:
                    b4:34:4c:8c:04:fe:33:0e:40:e2:20:ba:02:73:5a:
                    f7:f5:4f:63:6e:cc:c6:b6:df:54:1d:37:39:7d:51:
                    36:26:5f:bd:dc:3f:a8:8b:6b:a2:ae:b6:9d:d6:21:
                    e7:df:41:b8:7a:28:2a:68:48:ca:a8:2d:ed:e1:e9:
                    46:5e:5a:72:6d:b4:84:38:87:91:fd:94:11:0b:28:
                    84:c6:c2:2f:2a:fb:01:f9:36:7a:09:75:d1:33:88:
                    3c:73:41:5b:c8:bf:94:89:70:a1:f0:c0:b9:2e:50:
                    53:1e:b1:17:64:69:f4:2d:81:e0:a9:0d:0e:32:e9:
                    ba:55:8a:85:f1:1b:6f:49:79:b4:7f:88:c3:0d:3e:
                    54:88:9b:3d:1f:38:8c:04:f3:ee:6a:63:2b:f5:c6:
                    db:b4:83:aa:c4:78:41:3a:7d:4b:e1:c8:3e:71:ca:
                    1b:61:59:ea:c6:c4:ca:32:5e:c9:e9:bf:12:29:e6:
                    c6:c3:63:fe:a0:55:da:7a:f1:60:98:4d:26:ed:fa:
                    70:2d
                Exponent: 65537 (0x10001)
        X509v3 extensions:
            X509v3 Key Usage: 
                Digital Signature, Key Encipherment
            X509v3 Basic Constraints: 
                CA:FALSE
            Netscape Cert Type: 
                SSL Server
            Netscape Comment: 
                OpenSSL Generated Server Certificate
            X509v3 Subject Key Identifier: 
                53:3F:ED:5D:09:07:B3:65:7B:AB:45:C9:24:5B:09:77:80:0A:96:ED
            X509v3 Authority Key Identifier: 
                keyid:F4:A7:C0:CC:91:46:AF:64:F3:91:F2:27:F8:C8:B2:6F:8A:87:32:73
                DirName:/C=DE/ST=Hessen/O=privacyidea/CN=CA001
                serial:FB:C8:EB:AC:83:CD:12:07

            X509v3 Extended Key Usage: 
                TLS Web Server Authentication
    Signature Algorithm: sha1WithRSAEncryption
         86:b9:f9:2a:8d:74:ba:67:7b:ee:36:4e:5e:04:69:b4:45:78:
         98:23:3e:0a:6f:95:a4:11:5b:1a:ad:3e:82:c5:47:e5:9e:ad:
         7a:1e:4e:fe:a2:23:64:4f:59:a1:c0:9d:30:32:af:d5:fb:13:
         81:ab:fb:c1:f6:a2:40:58:50:59:3c:bc:1c:5c:96:e8:26:3f:
         e7:bc:6e:59:f1:4d:3e:2b:9a:83:ae:d4:e2:e6:47:cd:d8:04:
         a4:0c:6d:97:17:d0:c8:79:a4:27:40:94:78:ba:0a:da:ed:af:
         bf:78:96:39:4e:91:d3:4b:4e:75:1e:36:8d:01:f8:d3:56:b6:
         a8:4c:86:e5:cc:42:1d:1c:00:ef:28:55:0e:4b:a3:e7:98:35:
         dd:41:a4:f4:d9:60:9d:5b:43:ab:fb:b8:8a:f0:16:b5:ea:6e:
         b6:aa:ed:02:bc:3a:71:88:4e:0f:47:fb:fd:80:81:4b:1e:9c:
         7d:76:cd:af:55:f9:00:53:e2:b7:b6:39:e6:9f:2c:61:3a:a1:
         1c:68:dd:09:fe:27:80:12:09:a5:6f:d8:9e:53:f4:c5:83:91:
         2e:eb:c9:36:ef:cb:ce:28:eb:75:2f:3f:0b:5a:ac:12:c3:b6:
         28:b7:8a:41:87:62:b1:d6:ec:fc:ca:fc:8e:6e:50:b3:a5:fd:
         a9:58:07:e3
-----BEGIN CERTIFICATE-----
MIIEJjCCAw6gAwIBAgIEEAAAxjANBgkqhkiG9w0BAQUFADBEMQswCQYDVQQGEwJE
RTEPMA0GA1UECAwGSGVzc2VuMRQwEgYDVQQKDAtwcml2YWN5aWRlYTEOMAwGA1UE
AwwFQ0EwMDEwHhcNMTYwMTE4MTE0NzI1WhcNMTcwMTE3MTE0NzI1WjBUMQswCQYD
VQQGEwJERTEPMA0GA1UECAwGSGVzc2VuMRQwEgYDVQQKDAtwcml2YWN5aWRlYTEe
MBwGA1UEAwwVcmVxdWVzdGVyLmxvY2FsZG9tYWluMIIBIjANBgkqhkiG9w0BAQEF
AAOCAQ8AMIIBCgKCAQEAzb4UT/rOAT9CIhsdnK/dktJ/22y3PjlDQ2sTA/EF9Ad0
vHZpKAuvGY7X/OPNxljyyn8IbVP8BwJEJMa0NEyMBP4zDkDiILoCc1r39U9jbszG
tt9UHTc5fVE2Jl+93D+oi2uirrad1iHn30G4eigqaEjKqC3t4elGXlpybbSEOIeR
/ZQRCyiExsIvKvsB+TZ6CXXRM4g8c0FbyL+UiXCh8MC5LlBTHrEXZGn0LYHgqQ0O
Mum6VYqF8RtvSXm0f4jDDT5UiJs9HziMBPPuamMr9cbbtIOqxHhBOn1L4cg+ccob
YVnqxsTKMl7J6b8SKebGw2P+oFXaevFgmE0m7fpwLQIDAQABo4IBDjCCAQowCwYD
VR0PBAQDAgWgMAkGA1UdEwQCMAAwEQYJYIZIAYb4QgEBBAQDAgZAMDMGCWCGSAGG
+EIBDQQmFiRPcGVuU1NMIEdlbmVyYXRlZCBTZXJ2ZXIgQ2VydGlmaWNhdGUwHQYD
VR0OBBYEFFM/7V0JB7Nle6tFySRbCXeACpbtMHQGA1UdIwRtMGuAFPSnwMyRRq9k
85HyJ/jIsm+KhzJzoUikRjBEMQswCQYDVQQGEwJERTEPMA0GA1UECAwGSGVzc2Vu
MRQwEgYDVQQKDAtwcml2YWN5aWRlYTEOMAwGA1UEAwwFQ0EwMDGCCQD7yOusg80S
BzATBgNVHSUEDDAKBggrBgEFBQcDATANBgkqhkiG9w0BAQUFAAOCAQEAhrn5Ko10
umd77jZOXgRptEV4mCM+Cm+VpBFbGq0+gsVH5Z6teh5O/qIjZE9ZocCdMDKv1fsT
gav7wfaiQFhQWTy8HFyW6CY/57xuWfFNPiuag67U4uZHzdgEpAxtlxfQyHmkJ0CU
eLoK2u2vv3iWOU6R00tOdR42jQH401a2qEyG5cxCHRwA7yhVDkuj55g13UGk9Nlg
nVtDq/u4ivAWteputqrtArw6cYhOD0f7/YCBSx6cfXbNr1X5AFPit7Y55p8sYTqh
HGjdCf4ngBIJpW/YnlP0xYORLuvJNu/LzijrdS8/C1qsEsO2KLeKQYdisdbs/Mr8
jm5Qs6X9qVgH4w==
-----END CERTIFICATE-----
