Certificate:
    Data:
        Version: 3 (0x2)
        Serial Number: 268435667 (0x100000d3)
    Signature Algorithm: sha1WithRSAEncryption
        Issuer: C=DE, ST=Hessen, O=privacyidea, CN=CA001
        Validity
            Not Before: Sep 20 15:35:19 2015 GMT
            Not After : Sep 19 15:35:19 2016 GMT
        Subject: C=DE, ST=Hessen, O=privacyidea, CN=usercert
        Subject Public Key Info:
            Public Key Algorithm: rsaEncryption
                Public-Key: (2048 bit)
                Modulus:
                    00:dc:2f:d1:5f:29:97:d4:7c:c3:53:c8:30:bd:4b:
                    67:70:2c:24:6b:b8:5e:eb:21:7a:48:12:56:7c:81:
                    5c:48:75:b6:68:eb:f6:f2:98:4e:50:51:d1:7f:6c:
                    73:f3:0a:a7:ae:be:48:5e:e5:d6:e1:d9:2a:7c:32:
                    6e:4e:fd:08:f6:5a:54:49:23:73:c3:b9:07:18:d1:
                    ef:b3:ac:f8:8a:dc:94:96:a4:90:3a:8e:74:df:e6:
                    0d:37:1b:bd:5b:b7:25:1a:56:39:da:6f:91:aa:5e:
                    1c:74:f3:f9:7c:14:01:83:12:65:76:c7:bb:fe:36:
                    5b:95:e9:72:65:83:ed:3e:98:30:71:fa:87:dd:a3:
                    36:5a:30:03:2e:26:e0:61:d1:bf:02:3f:b6:06:1f:
                    4a:89:28:1c:5c:a2:ff:4e:be:94:e6:8c:e0:da:82:
                    f1:9d:29:32:48:30:73:b4:04:f6:42:1e:be:f7:e2:
                    32:32:27:3c:9d:89:2f:70:3e:85:9a:6f:5c:c5:09:
                    c0:8c:32:2f:72:22:c9:d2:95:1f:b6:ac:72:60:72:
                    b7:82:4d:6b:ce:5b:e3:00:d0:d2:2f:58:c6:e0:10:
                    e5:51:ca:4d:3b:2e:e6:7e:ab:84:d6:56:f1:93:35:
                    a0:93:64:26:81:75:2f:91:b5:16:06:38:0b:db:cc:
                    2d:07
                Exponent: 65537 (0x10001)
        X509v3 extensions:
            X509v3 Key Usage: 
                Digital Signature, Key Encipherment
            X509v3 Basic Constraints: 
                CA:FALSE
            Netscape Cert Type: 
                SSL Server
            Netscape Comment: 
                OpenSSL Generated Server Certificate
            X509v3 Subject Key Identifier: 
                FC:14:D1:F0:4B:8D:00:90:F2:F5:B8:71:9E:4E:97:C3:92:54:AD:0B
            X509v3 Authority Key Identifier: 
                keyid:F4:A7:C0:CC:91:46:AF:64:F3:91:F2:27:F8:C8:B2:6F:8A:87:32:73
                DirName:/C=DE/ST=Hessen/O=privacyidea/CN=CA001
                serial:FB:C8:EB:AC:83:CD:12:07

            X509v3 Extended Key Usage: 
                TLS Web Server Authentication
    Signature Algorithm: sha1WithRSAEncryption
         9e:16:cb:be:26:86:70:b3:f2:37:76:a5:93:05:35:d3:93:51:
         22:d4:88:0f:4d:60:ef:b5:8b:9e:56:41:85:93:d5:f6:d6:7c:
         1b:79:35:96:3a:3b:fd:eb:1e:34:de:86:c1:94:39:97:ce:52:
         7e:43:cd:9d:78:07:0b:61:ed:4b:08:a1:e0:48:16:08:cd:9b:
         bb:ce:09:e1:08:68:ea:c2:de:e2:da:37:f2:36:15:d7:b6:86:
         07:79:95:a5:13:e0:27:c0:f3:7f:7d:0f:b6:f0:aa:46:39:37:
         f9:80:1e:ef:f1:3b:ca:53:86:cf:98:4d:73:1b:a4:19:34:61:
         79:95:67:4d:e1:55:3f:78:cd:3c:27:ec:f8:6a:1e:ba:d6:f1:
         9f:59:c7:c1:e1:63:12:27:5e:e3:d6:1a:f1:d9:ad:9b:63:23:
         cd:d8:c2:73:61:b4:a3:da:25:4d:0c:34:61:19:a1:a9:ab:36:
         4c:83:2d:9b:09:ee:ef:44:60:21:13:c6:d6:b5:05:73:b6:ec:
         40:e8:12:22:6e:87:f6:a3:12:ae:6c:d8:2a:98:37:89:ab:da:
         d2:c7:31:8c:22:9a:55:a9:78:f6:fe:e9:58:d4:3a:f5:87:a0:
         7f:07:82:5e:f6:f9:c1:63:97:b2:b1:0b:d3:e0:2b:f7:05:d1:
         3e:e4:aa:92
-----BEGIN CERTIFICATE-----
MIIEGTCCAwGgAwIBAgIEEAAA0zANBgkqhkiG9w0BAQUFADBEMQswCQYDVQQGEwJE
RTEPMA0GA1UECAwGSGVzc2VuMRQwEgYDVQQKDAtwcml2YWN5aWRlYTEOMAwGA1UE
AwwFQ0EwMDEwHhcNMTUwOTIwMTUzNTE5WhcNMTYwOTE5MTUzNTE5WjBHMQswCQYD
VQQGEwJERTEPMA0GA1UECAwGSGVzc2VuMRQwEgYDVQQKDAtwcml2YWN5aWRlYTER
MA8GA1UEAwwIdXNlcmNlcnQwggEiMA0GCSqGSIb3DQEBAQUAA4IBDwAwggEKAoIB
AQDcL9FfKZfUfMNTyDC9S2dwLCRruF7rIXpIElZ8gVxIdbZo6/bymE5QUdF/bHPz
Cqeuvkhe5dbh2Sp8Mm5O/Qj2WlRJI3PDuQcY0e+zrPiK3JSWpJA6jnTf5g03G71b
tyUaVjnab5GqXhx08/l8FAGDEmV2x7v+NluV6XJlg+0+mDBx+ofdozZaMAMuJuBh
0b8CP7YGH0qJKBxcov9OvpTmjODagvGdKTJIMHO0BPZCHr734jIyJzydiS9wPoWa
b1zFCcCMMi9yIsnSlR+2rHJgcreCTWvOW+MA0NIvWMbgEOVRyk07LuZ+q4TWVvGT
NaCTZCaBdS+RtRYGOAvbzC0HAgMBAAGjggEOMIIBCjALBgNVHQ8EBAMCBaAwCQYD
VR0TBAIwADARBglghkgBhvhCAQEEBAMCBkAwMwYJYIZIAYb4QgENBCYWJE9wZW5T
U0wgR2VuZXJhdGVkIFNlcnZlciBDZXJ0aWZpY2F0ZTAdBgNVHQ4EFgQU/BTR8EuN
AJDy9bhxnk6Xw5JUrQswdAYDVR0jBG0wa4AU9KfAzJFGr2TzkfIn+Miyb4qHMnOh
SKRGMEQxCzAJBgNVBAYTAkRFMQ8wDQYDVQQIDAZIZXNzZW4xFDASBgNVBAoMC3By
aXZhY3lpZGVhMQ4wDAYDVQQDDAVDQTAwMYIJAPvI66yDzRIHMBMGA1UdJQQMMAoG
CCsGAQUFBwMBMA0GCSqGSIb3DQEBBQUAA4IBAQCeFsu+JoZws/I3dqWTBTXTk1Ei
1IgPTWDvtYueVkGFk9X21nwbeTWWOjv96x403obBlDmXzlJ+Q82deAcLYe1LCKHg
SBYIzZu7zgnhCGjqwt7i2jfyNhXXtoYHeZWlE+AnwPN/fQ+28KpGOTf5gB7v8TvK
U4bPmE1zG6QZNGF5lWdN4VU/eM08J+z4ah661vGfWcfB4WMSJ17j1hrx2a2bYyPN
2MJzYbSj2iVNDDRhGaGpqzZMgy2bCe7vRGAhE8bWtQVztuxA6BIibof2oxKubNgq
mDeJq9rSxzGMIppVqXj2/ulY1Dr1h6B/B4Je9vnBY5eysQvT4Cv3BdE+5KqS
-----END CERTIFICATE-----
