Certificate:
    Data:
        Version: 3 (0x2)
        Serial Number: 268435660 (0x100000cc)
    Signature Algorithm: sha1WithRSAEncryption
        Issuer: C=DE, ST=Hessen, O=privacyidea, CN=CA001
        Validity
            Not Before: Jan  5 08:34:36 2016 GMT
            Not After : Jan  4 08:34:36 2017 GMT
        Subject: CN=selfservice,CN=user,O=realm1/emailAddress=meine
        Subject Public Key Info:
            Public Key Algorithm: rsaEncryption
                Public-Key: (2048 bit)
                Modulus:
                    00:cf:3c:d4:33:0e:12:c4:e6:da:cd:b6:56:a1:1c:
                    26:bb:26:1c:8a:4a:73:a8:58:8a:b6:1e:b3:8b:99:
                    d2:1d:07:c2:92:89:79:c0:69:d8:c8:df:28:61:98:
                    1e:b3:fe:ae:2b:bd:78:a9:f7:6e:47:dc:a3:a0:16:
                    8c:85:02:c1:4e:92:fd:72:6e:f0:c8:03:29:9b:b8:
                    00:6e:c0:83:95:c8:34:20:36:9c:b3:e5:e4:e6:76:
                    73:a3:1a:ad:40:96:e0:53:54:00:ec:76:79:9a:c6:
                    0d:7e:b6:bd:29:ec:83:f3:cb:89:a4:cb:6c:00:ba:
                    0c:c5:78:0f:ff:69:b8:94:f4:04:70:43:3f:d8:9e:
                    d7:a7:fb:5d:ce:75:8e:da:e7:c4:07:b1:9d:de:6f:
                    88:4b:b6:4d:9a:cf:f9:bc:fa:9f:cd:32:6d:f6:3a:
                    0b:0d:23:42:78:ec:97:42:bf:0e:4d:60:56:e1:d3:
                    02:f2:19:cb:84:57:90:e5:70:a1:a2:83:35:86:e2:
                    da:86:9f:f9:8a:c4:79:b3:52:28:da:cb:bb:34:ca:
                    d3:da:91:4a:cf:8d:76:a2:b2:6b:9b:f9:96:fd:09:
                    2a:da:11:23:4d:f0:cb:d6:b2:b1:0e:12:6c:9a:19:
                    65:98:87:ca:e4:ee:24:ce:44:ac:90:8f:9d:1b:c5:
                    2a:9d
                Exponent: 65537 (0x10001)
        X509v3 extensions:
            X509v3 Key Usage: 
                Digital Signature, Key Encipherment
            X509v3 Basic Constraints: 
                CA:FALSE
            Netscape Cert Type: 
                SSL Server
            Netscape Comment: 
                OpenSSL Generated Server Certificate
            X509v3 Subject Key Identifier: 
                4D:07:90:AD:FF:1D:0D:E7:1A:DD:D6:2E:FA:BA:34:CB:AA:1F:24:C6
            X509v3 Authority Key Identifier: 
                keyid:F4:A7:C0:CC:91:46:AF:64:F3:91:F2:27:F8:C8:B2:6F:8A:87:32:73
                DirName:/C=DE/ST=Hessen/O=privacyidea/CN=CA001
                serial:FB:C8:EB:AC:83:CD:12:07

            X509v3 Extended Key Usage: 
                TLS Web Server Authentication
    Signature Algorithm: sha1WithRSAEncryption
         64:17:37:09:5c:d0:9d:0a:cf:49:df:f5:bc:ca:55:aa:e5:b7:
         7d:93:31:b7:87:77:2d:6f:1a:31:05:31:a1:20:e5:ac:a9:a7:
         3f:7f:7b:3d:68:46:d4:95:82:76:7e:86:eb:b4:53:05:c6:61:
         12:d8:5e:96:84:1e:79:75:b8:85:01:a0:3d:ad:e3:69:44:61:
         5a:cf:16:87:78:d0:92:17:5c:2e:b6:ed:8e:46:07:64:e0:ce:
         18:fe:97:e7:62:e4:bb:a9:bd:2d:84:24:09:4b:5f:07:4e:5c:
         9a:33:cc:5f:05:9e:8c:91:57:0c:26:41:c8:8a:d4:0b:67:36:
         04:72:27:e7:7b:78:cd:7b:75:d7:49:3e:0b:de:69:ca:0e:b8:
         7e:10:3e:b8:2e:2a:93:58:ad:6c:4e:04:b4:c7:b2:ef:81:01:
         3e:26:92:c9:38:01:65:fd:1d:f7:2d:ae:6a:b8:72:43:c5:b4:
         1c:8a:ff:8b:16:da:cf:d2:b9:6b:97:92:0e:03:65:da:e0:22:
         0f:f4:a1:79:57:77:53:43:75:3f:cb:08:f4:83:19:62:37:dd:
         e4:c1:3c:e3:ce:3a:24:05:26:b3:a0:7b:41:24:d5:e9:19:7d:
         76:e7:25:1f:c5:5b:8f:1d:af:13:88:6c:60:32:f8:7a:1b:0c:
         d4:b0:68:79
-----BEGIN CERTIFICATE-----
MIIEDzCCAvegAwIBAgIEEAAAzDANBgkqhkiG9w0BAQUFADBEMQswCQYDVQQGEwJE
RTEPMA0GA1UECAwGSGVzc2VuMRQwEgYDVQQKDAtwcml2YWN5aWRlYTEOMAwGA1UE
AwwFQ0EwMDEwHhcNMTYwMTA1MDgzNDM2WhcNMTcwMTA0MDgzNDM2WjA9MSUwIwYD
VQQDExxzZWxmc2VydmljZSxDTj11c2VyLE89cmVhbG0xMRQwEgYJKoZIhvcNAQkB
FgVtZWluZTCCASIwDQYJKoZIhvcNAQEBBQADggEPADCCAQoCggEBAM881DMOEsTm
2s22VqEcJrsmHIpKc6hYirYes4uZ0h0HwpKJecBp2MjfKGGYHrP+riu9eKn3bkfc
o6AWjIUCwU6S/XJu8MgDKZu4AG7Ag5XINCA2nLPl5OZ2c6MarUCW4FNUAOx2eZrG
DX62vSnsg/PLiaTLbAC6DMV4D/9puJT0BHBDP9ie16f7Xc51jtrnxAexnd5viEu2
TZrP+bz6n80ybfY6Cw0jQnjsl0K/Dk1gVuHTAvIZy4RXkOVwoaKDNYbi2oaf+YrE
ebNSKNrLuzTK09qRSs+NdqKya5v5lv0JKtoRI03wy9aysQ4SbJoZZZiHyuTuJM5E
rJCPnRvFKp0CAwEAAaOCAQ4wggEKMAsGA1UdDwQEAwIFoDAJBgNVHRMEAjAAMBEG
CWCGSAGG+EIBAQQEAwIGQDAzBglghkgBhvhCAQ0EJhYkT3BlblNTTCBHZW5lcmF0
ZWQgU2VydmVyIENlcnRpZmljYXRlMB0GA1UdDgQWBBRNB5Ct/x0N5xrd1i76ujTL
qh8kxjB0BgNVHSMEbTBrgBT0p8DMkUavZPOR8if4yLJviocyc6FIpEYwRDELMAkG
A1UEBhMCREUxDzANBgNVBAgMBkhlc3NlbjEUMBIGA1UECgwLcHJpdmFjeWlkZWEx
DjAMBgNVBAMMBUNBMDAxggkA+8jrrIPNEgcwEwYDVR0lBAwwCgYIKwYBBQUHAwEw
DQYJKoZIhvcNAQEFBQADggEBAGQXNwlc0J0Kz0nf9bzKVarlt32TMbeHdy1vGjEF
MaEg5ayppz9/ez1oRtSVgnZ+huu0UwXGYRLYXpaEHnl1uIUBoD2t42lEYVrPFod4
0JIXXC627Y5GB2Tgzhj+l+di5LupvS2EJAlLXwdOXJozzF8FnoyRVwwmQciK1Atn
NgRyJ+d7eM17dddJPgveacoOuH4QPrguKpNYrWxOBLTHsu+BAT4mksk4AWX9Hfct
rmq4ckPFtByK/4sW2s/SuWuXkg4DZdrgIg/0oXlXd1NDdT/LCPSDGWI33eTBPOPO
OiQFJrOge0Ek1ekZfXbnJR/FW48drxOIbGAy+HobDNSwaHk=
-----END CERTIFICATE-----
