Certificate:
    Data:
        Version: 3 (0x2)
        Serial Number: 268435652 (0x100000c4)
    Signature Algorithm: sha1WithRSAEncryption
        Issuer: C=DE, ST=Hessen, O=privacyidea, CN=CA001
        Validity
            Not Before: Jan 18 11:44:43 2016 GMT
            Not After : Jan 17 11:44:43 2017 GMT
        Subject: C=DE, ST=Hessen, O=privacyidea, CN=requester.localdomain
        Subject Public Key Info:
            Public Key Algorithm: rsaEncryption
                Public-Key: (2048 bit)
                Modulus:
                    00:cd:be:14:4f:fa:ce:01:3f:42:22:1b:1d:9c:af:
                    dd:92:d2:7f:db:6c:b7:3e:39:43:43:6b:13:03:f1:
                    05:f4:07:74:bc:76:69:28:0b:af:19:8e:d7:fc:e3:
                    cd:c6:58:f2:ca:7f:08:6d:53:fc:07:02:44:24:c6:
                    b4:34:4c:8c:04:fe:33:0e:40:e2:20:ba:02:73:5a:
                    f7:f5:4f:63:6e:cc:c6:b6:df:54:1d:37:39:7d:51:
                    36:26:5f:bd:dc:3f:a8:8b:6b:a2:ae:b6:9d:d6:21:
                    e7:df:41:b8:7a:28:2a:68:48:ca:a8:2d:ed:e1:e9:
                    46:5e:5a:72:6d:b4:84:38:87:91:fd:94:11:0b:28:
                    84:c6:c2:2f:2a:fb:01:f9:36:7a:09:75:d1:33:88:
                    3c:73:41:5b:c8:bf:94:89:70:a1:f0:c0:b9:2e:50:
                    53:1e:b1:17:64:69:f4:2d:81:e0:a9:0d:0e:32:e9:
                    ba:55:8a:85:f1:1b:6f:49:79:b4:7f:88:c3:0d:3e:
                    54:88:9b:3d:1f:38:8c:04:f3:ee:6a:63:2b:f5:c6:
                    db:b4:83:aa:c4:78:41:3a:7d:4b:e1:c8:3e:71:ca:
                    1b:61:59:ea:c6:c4:ca:32:5e:c9:e9:bf:12:29:e6:
                    c6:c3:63:fe:a0:55:da:7a:f1:60:98:4d:26:ed:fa:
                    70:2d
                Exponent: 65537 (0x10001)
        X509v3 extensions:
            X509v3 Key Usage: 
                Digital Signature, Key Encipherment
            X509v3 Basic Constraints: 
                CA:FALSE
            Netscape Cert Type: 
                SSL Server
            Netscape Comment: 
                OpenSSL Generated Server Certificate
            X509v3 Subject Key Identifier: 
                53:3F:ED:5D:09:07:B3:65:7B:AB:45:C9:24:5B:09:77:80:0A:96:ED
            X509v3 Authority Key Identifier: 
                keyid:F4:A7:C0:CC:91:46:AF:64:F3:91:F2:27:F8:C8:B2:6F:8A:87:32:73
                DirName:/C=DE/ST=Hessen/O=privacyidea/CN=CA001
                serial:FB:C8:EB:AC:83:CD:12:07

            X509v3 Extended Key Usage: 
                TLS Web Server Authentication
    Signature Algorithm: sha1WithRSAEncryption
         af:25:81:5b:10:ee:9f:90:e7:e2:b2:81:a9:3b:c1:79:dc:d1:
         1c:a5:d2:c5:ec:78:2e:94:2e:fd:4d:57:22:cf:7c:4a:c4:35:
         26:10:cb:3f:6e:7a:b9:72:d1:f4:39:1c:6b:3e:48:63:0c:63:
         dd:ea:74:58:ff:c5:eb:27:67:1f:ef:5f:df:b8:22:bf:02:81:
         91:24:b2:d8:57:0d:d6:c0:7e:b7:24:e8:7b:9e:58:a0:cc:72:
         ae:e2:ff:cf:a8:a5:9d:cc:b2:7f:6d:e2:42:fd:b5:05:2d:37:
         cf:48:83:76:b2:69:c1:a7:ef:40:c4:9d:79:14:08:ad:33:85:
         29:14:e2:d8:01:bf:e5:55:7a:6d:18:99:65:da:4d:68:a2:0b:
         2a:d0:44:c9:83:bc:37:fc:da:86:59:0a:65:67:65:b3:89:a5:
         a6:55:29:4e:e4:07:a7:a8:94:72:6e:e5:9e:bd:19:66:fc:ab:
         4c:a9:ca:b6:d2:eb:65:18:53:bd:32:f2:41:2f:f0:43:37:31:
         fe:0b:28:ca:65:27:f6:00:95:24:f7:cf:84:70:04:74:5e:37:
         07:e8:bb:23:c7:dd:df:b3:8a:c9:cb:c1:f4:35:45:27:30:61:
         30:2d:09:94:53:71:9b:92:f4:8a:db:07:a0:4e:b4:15:2e:25:
         61:98:d6:15
-----BEGIN CERTIFICATE-----
MIIEJjCCAw6gAwIBAgIEEAAAxDANBgkqhkiG9w0BAQUFADBEMQswCQYDVQQGEwJE
RTEPMA0GA1UECAwGSGVzc2VuMRQwEgYDVQQKDAtwcml2YWN5aWRlYTEOMAwGA1UE
AwwFQ0EwMDEwHhcNMTYwMTE4MTE0NDQzWhcNMTcwMTE3MTE0NDQzWjBUMQswCQYD
VQQGEwJERTEPMA0GA1UECAwGSGVzc2VuMRQwEgYDVQQKDAtwcml2YWN5aWRlYTEe
MBwGA1UEAwwVcmVxdWVzdGVyLmxvY2FsZG9tYWluMIIBIjANBgkqhkiG9w0BAQEF
AAOCAQ8AMIIBCgKCAQEAzb4UT/rOAT9CIhsdnK/dktJ/22y3PjlDQ2sTA/EF9Ad0
vHZpKAuvGY7X/OPNxljyyn8IbVP8BwJEJMa0NEyMBP4zDkDiILoCc1r39U9jbszG
tt9UHTc5fVE2Jl+93D+oi2uirrad1iHn30G4eigqaEjKqC3t4elGXlpybbSEOIeR
/ZQRCyiExsIvKvsB+TZ6CXXRM4g8c0FbyL+UiXCh8MC5LlBTHrEXZGn0LYHgqQ0O
Mum6VYqF8RtvSXm0f4jDDT5UiJs9HziMBPPuamMr9cbbtIOqxHhBOn1L4cg+ccob
YVnqxsTKMl7J6b8SKebGw2P+oFXaevFgmE0m7fpwLQIDAQABo4IBDjCCAQowCwYD
VR0PBAQDAgWgMAkGA1UdEwQCMAAwEQYJYIZIAYb4QgEBBAQDAgZAMDMGCWCGSAGG
+EIBDQQmFiRPcGVuU1NMIEdlbmVyYXRlZCBTZXJ2ZXIgQ2VydGlmaWNhdGUwHQYD
VR0OBBYEFFM/7V0JB7Nle6tFySRbCXeACpbtMHQGA1UdIwRtMGuAFPSnwMyRRq9k
85HyJ/jIsm+KhzJzoUikRjBEMQswCQYDVQQGEwJERTEPMA0GA1UECAwGSGVzc2Vu
MRQwEgYDVQQKDAtwcml2YWN5aWRlYTEOMAwGA1UEAwwFQ0EwMDGCCQD7yOusg80S
BzATBgNVHSUEDDAKBggrBgEFBQcDATANBgkqhkiG9w0BAQUFAAOCAQEAryWBWxDu
n5Dn4rKBqTvBedzRHKXSxex4LpQu/U1XIs98SsQ1JhDLP256uXLR9Dkcaz5IYwxj
3ep0WP/F6ydnH+9f37givwKBkSSy2FcN1sB+tyToe55YoMxyruL/z6ilncyyf23i
Qv21BS03z0iDdrJpwafvQMSdeRQIrTOFKRTi2AG/5VV6bRiZZdpNaKILKtBEyYO8
N/zahlkKZWdls4mlplUpTuQHp6iUcm7lnr0ZZvyrTKnKttLrZRhTvTLyQS/wQzcx
/gsoymUn9gCVJPfPhHAEdF43B+i7I8fd37OKycvB9DVFJzBhMC0JlFNxm5L0itsH
oE60FS4lYZjWFQ==
-----END CERTIFICATE-----
