Certificate:
    Data:
        Version: 3 (0x2)
        Serial Number: 268435666 (0x100000d2)
    Signature Algorithm: sha1WithRSAEncryption
        Issuer: C=DE, ST=Hessen, O=privacyidea, CN=CA001
        Validity
            Not Before: Dec 18 17:48:50 2015 GMT
            Not After : Dec 17 17:48:50 2016 GMT
        Subject: CN=selfservice,CN=user,O=realm1/emailAddress=meine
        Subject Public Key Info:
            Public Key Algorithm: rsaEncryption
                Public-Key: (2048 bit)
                Modulus:
                    00:cf:3c:d4:33:0e:12:c4:e6:da:cd:b6:56:a1:1c:
                    26:bb:26:1c:8a:4a:73:a8:58:8a:b6:1e:b3:8b:99:
                    d2:1d:07:c2:92:89:79:c0:69:d8:c8:df:28:61:98:
                    1e:b3:fe:ae:2b:bd:78:a9:f7:6e:47:dc:a3:a0:16:
                    8c:85:02:c1:4e:92:fd:72:6e:f0:c8:03:29:9b:b8:
                    00:6e:c0:83:95:c8:34:20:36:9c:b3:e5:e4:e6:76:
                    73:a3:1a:ad:40:96:e0:53:54:00:ec:76:79:9a:c6:
                    0d:7e:b6:bd:29:ec:83:f3:cb:89:a4:cb:6c:00:ba:
                    0c:c5:78:0f:ff:69:b8:94:f4:04:70:43:3f:d8:9e:
                    d7:a7:fb:5d:ce:75:8e:da:e7:c4:07:b1:9d:de:6f:
                    88:4b:b6:4d:9a:cf:f9:bc:fa:9f:cd:32:6d:f6:3a:
                    0b:0d:23:42:78:ec:97:42:bf:0e:4d:60:56:e1:d3:
                    02:f2:19:cb:84:57:90:e5:70:a1:a2:83:35:86:e2:
                    da:86:9f:f9:8a:c4:79:b3:52:28:da:cb:bb:34:ca:
                    d3:da:91:4a:cf:8d:76:a2:b2:6b:9b:f9:96:fd:09:
                    2a:da:11:23:4d:f0:cb:d6:b2:b1:0e:12:6c:9a:19:
                    65:98:87:ca:e4:ee:24:ce:44:ac:90:8f:9d:1b:c5:
                    2a:9d
                Exponent: 65537 (0x10001)
        X509v3 extensions:
            X509v3 Key Usage: 
                Digital Signature, Key Encipherment
            X509v3 Basic Constraints: 
                CA:FALSE
            Netscape Cert Type: 
                SSL Server
            Netscape Comment: 
                OpenSSL Generated Server Certificate
            X509v3 Subject Key Identifier: 
                4D:07:90:AD:FF:1D:0D:E7:1A:DD:D6:2E:FA:BA:34:CB:AA:1F:24:C6
            X509v3 Authority Key Identifier: 
                keyid:F4:A7:C0:CC:91:46:AF:64:F3:91:F2:27:F8:C8:B2:6F:8A:87:32:73
                DirName:/C=DE/ST=Hessen/O=privacyidea/CN=CA001
                serial:FB:C8:EB:AC:83:CD:12:07

            X509v3 Extended Key Usage: 
                TLS Web Server Authentication
    Signature Algorithm: sha1WithRSAEncryption
         13:da:87:6f:0f:f4:00:80:b7:39:a4:c7:be:b1:e6:ba:51:98:
         bc:e2:1b:f9:ea:e4:cf:50:6f:b1:bf:92:1d:8b:9f:c2:4a:02:
         e6:c1:8e:1c:67:3d:83:6d:06:15:83:1e:80:77:99:51:76:57:
         e4:3c:93:ef:af:89:20:63:88:52:9d:fa:ce:8a:19:3e:25:50:
         c0:76:f1:26:50:c0:24:6b:70:eb:55:80:78:18:fc:1c:b4:4b:
         a9:70:27:1b:93:5a:4b:54:7f:40:96:97:8c:6f:39:ee:bf:67:
         de:b8:05:8c:21:fc:b7:50:59:ab:9b:66:fc:25:9b:6d:43:17:
         fe:1a:80:96:6e:16:3d:75:8c:d1:b1:4b:50:2f:83:19:a4:74:
         b3:d4:de:80:da:58:c3:77:31:2d:f3:3d:a6:14:73:55:32:13:
         3d:99:ca:dc:5d:0d:00:84:1a:36:09:7e:29:f4:40:ac:2e:6c:
         18:ef:d6:39:29:e0:21:aa:aa:4d:de:22:9b:e2:11:b4:77:ad:
         a0:c9:02:58:c5:b2:a9:92:a7:3f:db:68:7c:a8:cc:35:4f:52:
         6f:b8:73:a9:b7:ed:44:9f:21:ad:d5:73:95:22:13:90:c8:a3:
         5f:38:58:d4:b7:9f:2d:75:e2:d6:b3:3b:a6:25:71:e6:2f:f1:
         0d:c7:b4:f1
-----BEGIN CERTIFICATE-----
MIIEDzCCAvegAwIBAgIEEAAA0jANBgkqhkiG9w0BAQUFADBEMQswCQYDVQQGEwJE
RTEPMA0GA1UECAwGSGVzc2VuMRQwEgYDVQQKDAtwcml2YWN5aWRlYTEOMAwGA1UE
AwwFQ0EwMDEwHhcNMTUxMjE4MTc0ODUwWhcNMTYxMjE3MTc0ODUwWjA9MSUwIwYD
VQQDExxzZWxmc2VydmljZSxDTj11c2VyLE89cmVhbG0xMRQwEgYJKoZIhvcNAQkB
FgVtZWluZTCCASIwDQYJKoZIhvcNAQEBBQADggEPADCCAQoCggEBAM881DMOEsTm
2s22VqEcJrsmHIpKc6hYirYes4uZ0h0HwpKJecBp2MjfKGGYHrP+riu9eKn3bkfc
o6AWjIUCwU6S/XJu8MgDKZu4AG7Ag5XINCA2nLPl5OZ2c6MarUCW4FNUAOx2eZrG
DX62vSnsg/PLiaTLbAC6DMV4D/9puJT0BHBDP9ie16f7Xc51jtrnxAexnd5viEu2
TZrP+bz6n80ybfY6Cw0jQnjsl0K/Dk1gVuHTAvIZy4RXkOVwoaKDNYbi2oaf+YrE
ebNSKNrLuzTK09qRSs+NdqKya5v5lv0JKtoRI03wy9aysQ4SbJoZZZiHyuTuJM5E
rJCPnRvFKp0CAwEAAaOCAQ4wggEKMAsGA1UdDwQEAwIFoDAJBgNVHRMEAjAAMBEG
CWCGSAGG+EIBAQQEAwIGQDAzBglghkgBhvhCAQ0EJhYkT3BlblNTTCBHZW5lcmF0
ZWQgU2VydmVyIENlcnRpZmljYXRlMB0GA1UdDgQWBBRNB5Ct/x0N5xrd1i76ujTL
qh8kxjB0BgNVHSMEbTBrgBT0p8DMkUavZPOR8if4yLJviocyc6FIpEYwRDELMAkG
A1UEBhMCREUxDzANBgNVBAgMBkhlc3NlbjEUMBIGA1UECgwLcHJpdmFjeWlkZWEx
DjAMBgNVBAMMBUNBMDAxggkA+8jrrIPNEgcwEwYDVR0lBAwwCgYIKwYBBQUHAwEw
DQYJKoZIhvcNAQEFBQADggEBABPah28P9ACAtzmkx76x5rpRmLziG/nq5M9Qb7G/
kh2Ln8JKAubBjhxnPYNtBhWDHoB3mVF2V+Q8k++viSBjiFKd+s6KGT4lUMB28SZQ
wCRrcOtVgHgY/By0S6lwJxuTWktUf0CWl4xvOe6/Z964BYwh/LdQWaubZvwlm21D
F/4agJZuFj11jNGxS1AvgxmkdLPU3oDaWMN3MS3zPaYUc1UyEz2ZytxdDQCEGjYJ
fin0QKwubBjv1jkp4CGqqk3eIpviEbR3raDJAljFsqmSpz/baHyozDVPUm+4c6m3
7USfIa3Vc5UiE5DIo184WNS3ny114tazO6YlceYv8Q3HtPE=
-----END CERTIFICATE-----
