Certificate:
    Data:
        Version: 3 (0x2)
        Serial Number: 268435653 (0x100000c5)
    Signature Algorithm: sha1WithRSAEncryption
        Issuer: C=DE, ST=Hessen, O=privacyidea, CN=CA001
        Validity
            Not Before: Jan 16 16:44:14 2016 GMT
            Not After : Jan 15 16:44:14 2017 GMT
        Subject: C=DE, ST=Hessen, O=privacyidea, CN=usercert
        Subject Public Key Info:
            Public Key Algorithm: rsaEncryption
                Public-Key: (2048 bit)
                Modulus:
                    00:dc:2f:d1:5f:29:97:d4:7c:c3:53:c8:30:bd:4b:
                    67:70:2c:24:6b:b8:5e:eb:21:7a:48:12:56:7c:81:
                    5c:48:75:b6:68:eb:f6:f2:98:4e:50:51:d1:7f:6c:
                    73:f3:0a:a7:ae:be:48:5e:e5:d6:e1:d9:2a:7c:32:
                    6e:4e:fd:08:f6:5a:54:49:23:73:c3:b9:07:18:d1:
                    ef:b3:ac:f8:8a:dc:94:96:a4:90:3a:8e:74:df:e6:
                    0d:37:1b:bd:5b:b7:25:1a:56:39:da:6f:91:aa:5e:
                    1c:74:f3:f9:7c:14:01:83:12:65:76:c7:bb:fe:36:
                    5b:95:e9:72:65:83:ed:3e:98:30:71:fa:87:dd:a3:
                    36:5a:30:03:2e:26:e0:61:d1:bf:02:3f:b6:06:1f:
                    4a:89:28:1c:5c:a2:ff:4e:be:94:e6:8c:e0:da:82:
                    f1:9d:29:32:48:30:73:b4:04:f6:42:1e:be:f7:e2:
                    32:32:27:3c:9d:89:2f:70:3e:85:9a:6f:5c:c5:09:
                    c0:8c:32:2f:72:22:c9:d2:95:1f:b6:ac:72:60:72:
                    b7:82:4d:6b:ce:5b:e3:00:d0:d2:2f:58:c6:e0:10:
                    e5:51:ca:4d:3b:2e:e6:7e:ab:84:d6:56:f1:93:35:
                    a0:93:64:26:81:75:2f:91:b5:16:06:38:0b:db:cc:
                    2d:07
                Exponent: 65537 (0x10001)
        X509v3 extensions:
            X509v3 Key Usage: 
                Digital Signature, Key Encipherment
            X509v3 Basic Constraints: 
                CA:FALSE
            Netscape Cert Type: 
                SSL Server
            Netscape Comment: 
                OpenSSL Generated Server Certificate
            X509v3 Subject Key Identifier: 
                FC:14:D1:F0:4B:8D:00:90:F2:F5:B8:71:9E:4E:97:C3:92:54:AD:0B
            X509v3 Authority Key Identifier: 
                keyid:F4:A7:C0:CC:91:46:AF:64:F3:91:F2:27:F8:C8:B2:6F:8A:87:32:73
                DirName:/C=DE/ST=Hessen/O=privacyidea/CN=CA001
                serial:FB:C8:EB:AC:83:CD:12:07

            X509v3 Extended Key Usage: 
                TLS Web Server Authentication
    Signature Algorithm: sha1WithRSAEncryption
         4b:94:37:b6:87:ca:02:86:90:3c:50:a1:d0:ef:35:3b:51:71:
         9f:bd:78:a3:84:bc:0d:99:b0:d2:51:84:48:ad:2f:33:5a:52:
         c9:1a:eb:6b:74:25:86:c7:e7:4f:1c:e8:58:95:a3:ef:0e:e5:
         d3:3f:dc:85:2b:e9:aa:98:37:cf:c5:82:ab:44:05:99:cb:4a:
         1b:c3:b7:6b:0c:07:51:eb:01:84:76:d1:87:28:95:bc:dc:7b:
         e6:39:7b:41:f3:33:25:8e:f2:cc:16:9a:d2:ef:6a:54:37:f2:
         c9:18:fc:51:1d:2c:cb:5b:1b:30:92:0f:fe:1b:a2:d5:a9:06:
         3c:56:0a:6f:a1:1d:c0:33:73:76:c1:36:bc:b2:4e:fe:dc:f3:
         01:33:94:ff:a0:33:ea:63:01:0c:e5:55:c5:4d:7c:2e:d1:ba:
         d6:10:fb:d0:13:0f:4f:b0:a9:02:56:e6:6d:e7:00:c6:a0:9c:
         11:f3:b0:bf:d6:be:f7:af:ea:24:5b:95:a0:e6:e5:74:28:fa:
         87:78:bf:d0:5f:57:69:ba:18:b2:b0:f6:01:5b:c0:29:c5:ec:
         63:4d:de:a0:6e:b2:3c:8a:01:67:80:9a:88:28:82:f0:0b:0a:
         ec:7b:c9:90:b0:e2:7a:34:ab:92:de:b7:ed:4d:39:47:a8:0f:
         df:71:5b:e4
-----BEGIN CERTIFICATE-----
MIIEGTCCAwGgAwIBAgIEEAAAxTANBgkqhkiG9w0BAQUFADBEMQswCQYDVQQGEwJE
RTEPMA0GA1UECAwGSGVzc2VuMRQwEgYDVQQKDAtwcml2YWN5aWRlYTEOMAwGA1UE
AwwFQ0EwMDEwHhcNMTYwMTE2MTY0NDE0WhcNMTcwMTE1MTY0NDE0WjBHMQswCQYD
VQQGEwJERTEPMA0GA1UECAwGSGVzc2VuMRQwEgYDVQQKDAtwcml2YWN5aWRlYTER
MA8GA1UEAwwIdXNlcmNlcnQwggEiMA0GCSqGSIb3DQEBAQUAA4IBDwAwggEKAoIB
AQDcL9FfKZfUfMNTyDC9S2dwLCRruF7rIXpIElZ8gVxIdbZo6/bymE5QUdF/bHPz
Cqeuvkhe5dbh2Sp8Mm5O/Qj2WlRJI3PDuQcY0e+zrPiK3JSWpJA6jnTf5g03G71b
tyUaVjnab5GqXhx08/l8FAGDEmV2x7v+NluV6XJlg+0+mDBx+ofdozZaMAMuJuBh
0b8CP7YGH0qJKBxcov9OvpTmjODagvGdKTJIMHO0BPZCHr734jIyJzydiS9wPoWa
b1zFCcCMMi9yIsnSlR+2rHJgcreCTWvOW+MA0NIvWMbgEOVRyk07LuZ+q4TWVvGT
NaCTZCaBdS+RtRYGOAvbzC0HAgMBAAGjggEOMIIBCjALBgNVHQ8EBAMCBaAwCQYD
VR0TBAIwADARBglghkgBhvhCAQEEBAMCBkAwMwYJYIZIAYb4QgENBCYWJE9wZW5T
U0wgR2VuZXJhdGVkIFNlcnZlciBDZXJ0aWZpY2F0ZTAdBgNVHQ4EFgQU/BTR8EuN
AJDy9bhxnk6Xw5JUrQswdAYDVR0jBG0wa4AU9KfAzJFGr2TzkfIn+Miyb4qHMnOh
SKRGMEQxCzAJBgNVBAYTAkRFMQ8wDQYDVQQIDAZIZXNzZW4xFDASBgNVBAoMC3By
aXZhY3lpZGVhMQ4wDAYDVQQDDAVDQTAwMYIJAPvI66yDzRIHMBMGA1UdJQQMMAoG
CCsGAQUFBwMBMA0GCSqGSIb3DQEBBQUAA4IBAQBLlDe2h8oChpA8UKHQ7zU7UXGf
vXijhLwNmbDSUYRIrS8zWlLJGutrdCWGx+dPHOhYlaPvDuXTP9yFK+mqmDfPxYKr
RAWZy0obw7drDAdR6wGEdtGHKJW83HvmOXtB8zMljvLMFprS72pUN/LJGPxRHSzL
Wxswkg/+G6LVqQY8VgpvoR3AM3N2wTa8sk7+3PMBM5T/oDPqYwEM5VXFTXwu0brW
EPvQEw9PsKkCVuZt5wDGoJwR87C/1r73r+okW5Wg5uV0KPqHeL/QX1dpuhiysPYB
W8ApxexjTd6gbrI8igFngJqIKILwCwrse8mQsOJ6NKuS3rftTTlHqA/fcVvk
-----END CERTIFICATE-----
