Certificate:
    Data:
        Version: 3 (0x2)
        Serial Number: 268435655 (0x100000c7)
    Signature Algorithm: sha1WithRSAEncryption
        Issuer: C=DE, ST=Hessen, O=privacyidea, CN=CA001
        Validity
            Not Before: Jan 18 11:49:04 2016 GMT
            Not After : Jan 17 11:49:04 2017 GMT
        Subject: C=DE, ST=Hessen, O=privacyidea, CN=requester.localdomain
        Subject Public Key Info:
            Public Key Algorithm: rsaEncryption
                Public-Key: (2048 bit)
                Modulus:
                    00:cd:be:14:4f:fa:ce:01:3f:42:22:1b:1d:9c:af:
                    dd:92:d2:7f:db:6c:b7:3e:39:43:43:6b:13:03:f1:
                    05:f4:07:74:bc:76:69:28:0b:af:19:8e:d7:fc:e3:
                    cd:c6:58:f2:ca:7f:08:6d:53:fc:07:02:44:24:c6:
                    b4:34:4c:8c:04:fe:33:0e:40:e2:20:ba:02:73:5a:
                    f7:f5:4f:63:6e:cc:c6:b6:df:54:1d:37:39:7d:51:
                    36:26:5f:bd:dc:3f:a8:8b:6b:a2:ae:b6:9d:d6:21:
                    e7:df:41:b8:7a:28:2a:68:48:ca:a8:2d:ed:e1:e9:
                    46:5e:5a:72:6d:b4:84:38:87:91:fd:94:11:0b:28:
                    84:c6:c2:2f:2a:fb:01:f9:36:7a:09:75:d1:33:88:
                    3c:73:41:5b:c8:bf:94:89:70:a1:f0:c0:b9:2e:50:
                    53:1e:b1:17:64:69:f4:2d:81:e0:a9:0d:0e:32:e9:
                    ba:55:8a:85:f1:1b:6f:49:79:b4:7f:88:c3:0d:3e:
                    54:88:9b:3d:1f:38:8c:04:f3:ee:6a:63:2b:f5:c6:
                    db:b4:83:aa:c4:78:41:3a:7d:4b:e1:c8:3e:71:ca:
                    1b:61:59:ea:c6:c4:ca:32:5e:c9:e9:bf:12:29:e6:
                    c6:c3:63:fe:a0:55:da:7a:f1:60:98:4d:26:ed:fa:
                    70:2d
                Exponent: 65537 (0x10001)
        X509v3 extensions:
            X509v3 Key Usage: 
                Digital Signature, Key Encipherment
            X509v3 Basic Constraints: 
                CA:FALSE
            Netscape Cert Type: 
                SSL Server
            Netscape Comment: 
                OpenSSL Generated Server Certificate
            X509v3 Subject Key Identifier: 
                53:3F:ED:5D:09:07:B3:65:7B:AB:45:C9:24:5B:09:77:80:0A:96:ED
            X509v3 Authority Key Identifier: 
                keyid:F4:A7:C0:CC:91:46:AF:64:F3:91:F2:27:F8:C8:B2:6F:8A:87:32:73
                DirName:/C=DE/ST=Hessen/O=privacyidea/CN=CA001
                serial:FB:C8:EB:AC:83:CD:12:07

            X509v3 Extended Key Usage: 
                TLS Web Server Authentication
    Signature Algorithm: sha1WithRSAEncryption
         00:b2:8a:8f:4c:3a:55:24:ef:5a:d8:89:5f:5c:df:e6:61:7c:
         db:dd:28:12:56:30:50:df:3c:e9:16:c7:13:97:1f:aa:7d:e6:
         34:b2:ad:58:51:11:34:77:4d:d3:6f:f7:34:ca:d4:64:0f:09:
         6d:29:fb:b2:1f:67:82:45:93:f2:22:80:4e:1b:d0:f8:dc:a2:
         b2:42:e2:3c:45:77:94:b8:89:b8:54:57:c0:b0:e7:78:a6:55:
         21:7e:5b:e7:31:82:55:c9:5a:79:21:23:c2:44:97:c8:76:f6:
         06:9b:c6:f4:bf:64:95:c6:7d:94:9f:d0:3f:17:da:ef:39:98:
         d5:f7:08:d3:96:fd:f3:e5:7d:c8:e7:da:2f:c9:22:eb:f7:9c:
         cc:ef:fa:84:9d:7b:74:a2:1e:2d:18:d4:05:86:d8:47:fc:13:
         af:07:d5:e0:f6:bb:7e:a6:1a:2a:7d:e0:7a:3d:57:45:60:d7:
         10:39:ee:39:a6:32:0c:8c:0d:30:10:b8:4e:6f:06:b0:78:48:
         d4:25:33:50:88:44:cc:3e:b8:56:29:f8:97:f1:ff:c7:83:47:
         f4:e4:6d:74:29:ff:7e:be:b5:42:93:2c:eb:82:bd:6a:ce:76:
         d5:6b:7b:a5:01:ad:b9:26:aa:1b:8a:eb:3b:db:e6:b6:01:e8:
         c2:f9:39:c7
-----BEGIN CERTIFICATE-----
MIIEJjCCAw6gAwIBAgIEEAAAxzANBgkqhkiG9w0BAQUFADBEMQswCQYDVQQGEwJE
RTEPMA0GA1UECAwGSGVzc2VuMRQwEgYDVQQKDAtwcml2YWN5aWRlYTEOMAwGA1UE
AwwFQ0EwMDEwHhcNMTYwMTE4MTE0OTA0WhcNMTcwMTE3MTE0OTA0WjBUMQswCQYD
VQQGEwJERTEPMA0GA1UECAwGSGVzc2VuMRQwEgYDVQQKDAtwcml2YWN5aWRlYTEe
MBwGA1UEAwwVcmVxdWVzdGVyLmxvY2FsZG9tYWluMIIBIjANBgkqhkiG9w0BAQEF
AAOCAQ8AMIIBCgKCAQEAzb4UT/rOAT9CIhsdnK/dktJ/22y3PjlDQ2sTA/EF9Ad0
vHZpKAuvGY7X/OPNxljyyn8IbVP8BwJEJMa0NEyMBP4zDkDiILoCc1r39U9jbszG
tt9UHTc5fVE2Jl+93D+oi2uirrad1iHn30G4eigqaEjKqC3t4elGXlpybbSEOIeR
/ZQRCyiExsIvKvsB+TZ6CXXRM4g8c0FbyL+UiXCh8MC5LlBTHrEXZGn0LYHgqQ0O
Mum6VYqF8RtvSXm0f4jDDT5UiJs9HziMBPPuamMr9cbbtIOqxHhBOn1L4cg+ccob
YVnqxsTKMl7J6b8SKebGw2P+oFXaevFgmE0m7fpwLQIDAQABo4IBDjCCAQowCwYD
VR0PBAQDAgWgMAkGA1UdEwQCMAAwEQYJYIZIAYb4QgEBBAQDAgZAMDMGCWCGSAGG
+EIBDQQmFiRPcGVuU1NMIEdlbmVyYXRlZCBTZXJ2ZXIgQ2VydGlmaWNhdGUwHQYD
VR0OBBYEFFM/7V0JB7Nle6tFySRbCXeACpbtMHQGA1UdIwRtMGuAFPSnwMyRRq9k
85HyJ/jIsm+KhzJzoUikRjBEMQswCQYDVQQGEwJERTEPMA0GA1UECAwGSGVzc2Vu
MRQwEgYDVQQKDAtwcml2YWN5aWRlYTEOMAwGA1UEAwwFQ0EwMDGCCQD7yOusg80S
BzATBgNVHSUEDDAKBggrBgEFBQcDATANBgkqhkiG9w0BAQUFAAOCAQEAALKKj0w6
VSTvWtiJX1zf5mF8290oElYwUN886RbHE5cfqn3mNLKtWFERNHdN02/3NMrUZA8J
bSn7sh9ngkWT8iKAThvQ+NyiskLiPEV3lLiJuFRXwLDneKZVIX5b5zGCVclaeSEj
wkSXyHb2BpvG9L9klcZ9lJ/QPxfa7zmY1fcI05b98+V9yOfaL8ki6/eczO/6hJ17
dKIeLRjUBYbYR/wTrwfV4Pa7fqYaKn3gej1XRWDXEDnuOaYyDIwNMBC4Tm8GsHhI
1CUzUIhEzD64Vin4l/H/x4NH9ORtdCn/fr61QpMs64K9as521Wt7pQGtuSaqG4rr
O9vmtgHowvk5xw==
-----END CERTIFICATE-----
