Certificate:
    Data:
        Version: 3 (0x2)
        Serial Number: 268435654 (0x100000c6)
    Signature Algorithm: sha1WithRSAEncryption
        Issuer: C=DE, ST=Hessen, O=privacyidea, CN=CA001
        Validity
            Not Before: Dec 18 17:10:45 2015 GMT
            Not After : Dec 17 17:10:45 2016 GMT
        Subject: CN=selfservice,CN=user,O=realm1/emailAddress=meine
        Subject Public Key Info:
            Public Key Algorithm: rsaEncryption
                Public-Key: (2048 bit)
                Modulus:
                    00:cf:3c:d4:33:0e:12:c4:e6:da:cd:b6:56:a1:1c:
                    26:bb:26:1c:8a:4a:73:a8:58:8a:b6:1e:b3:8b:99:
                    d2:1d:07:c2:92:89:79:c0:69:d8:c8:df:28:61:98:
                    1e:b3:fe:ae:2b:bd:78:a9:f7:6e:47:dc:a3:a0:16:
                    8c:85:02:c1:4e:92:fd:72:6e:f0:c8:03:29:9b:b8:
                    00:6e:c0:83:95:c8:34:20:36:9c:b3:e5:e4:e6:76:
                    73:a3:1a:ad:40:96:e0:53:54:00:ec:76:79:9a:c6:
                    0d:7e:b6:bd:29:ec:83:f3:cb:89:a4:cb:6c:00:ba:
                    0c:c5:78:0f:ff:69:b8:94:f4:04:70:43:3f:d8:9e:
                    d7:a7:fb:5d:ce:75:8e:da:e7:c4:07:b1:9d:de:6f:
                    88:4b:b6:4d:9a:cf:f9:bc:fa:9f:cd:32:6d:f6:3a:
                    0b:0d:23:42:78:ec:97:42:bf:0e:4d:60:56:e1:d3:
                    02:f2:19:cb:84:57:90:e5:70:a1:a2:83:35:86:e2:
                    da:86:9f:f9:8a:c4:79:b3:52:28:da:cb:bb:34:ca:
                    d3:da:91:4a:cf:8d:76:a2:b2:6b:9b:f9:96:fd:09:
                    2a:da:11:23:4d:f0:cb:d6:b2:b1:0e:12:6c:9a:19:
                    65:98:87:ca:e4:ee:24:ce:44:ac:90:8f:9d:1b:c5:
                    2a:9d
                Exponent: 65537 (0x10001)
        X509v3 extensions:
            X509v3 Key Usage: 
                Digital Signature, Key Encipherment
            X509v3 Basic Constraints: 
                CA:FALSE
            Netscape Cert Type: 
                SSL Server
            Netscape Comment: 
                OpenSSL Generated Server Certificate
            X509v3 Subject Key Identifier: 
                4D:07:90:AD:FF:1D:0D:E7:1A:DD:D6:2E:FA:BA:34:CB:AA:1F:24:C6
            X509v3 Authority Key Identifier: 
                keyid:F4:A7:C0:CC:91:46:AF:64:F3:91:F2:27:F8:C8:B2:6F:8A:87:32:73
                DirName:/C=DE/ST=Hessen/O=privacyidea/CN=CA001
                serial:FB:C8:EB:AC:83:CD:12:07

            X509v3 Extended Key Usage: 
                TLS Web Server Authentication
    Signature Algorithm: sha1WithRSAEncryption
         b7:80:78:8c:ff:09:bf:e7:c1:a7:d9:0f:30:37:36:73:32:d5:
         44:ea:39:b3:56:1a:35:7a:70:44:b6:64:f8:90:b3:b4:ce:10:
         c9:3e:9d:dc:31:19:3b:97:47:5d:51:de:63:5c:c9:53:7e:29:
         2a:71:cf:00:e9:29:f3:fc:fe:27:7d:24:b2:0d:11:76:c0:c3:
         e2:58:19:0b:16:a8:f7:e3:19:e6:0e:7f:5b:30:64:49:89:77:
         be:84:72:08:0f:2f:e1:1c:b5:fd:c2:7e:cd:27:bc:f3:f9:01:
         f1:5a:9a:4d:2f:62:a1:c4:c5:ae:85:6d:ac:c5:a7:a1:73:e4:
         61:99:65:80:8e:d3:68:41:a4:f8:a3:11:01:1f:f6:bf:60:65:
         f9:3a:07:28:4b:b3:2f:69:8d:57:bb:93:21:16:28:42:00:83:
         32:1f:cc:ab:37:ff:f9:a1:eb:08:5d:68:6b:bc:16:86:85:8c:
         3d:a3:f7:1a:1e:b4:4a:92:5e:8c:72:06:d2:3c:b6:be:1a:74:
         11:a3:a4:b5:9e:b5:eb:e5:38:19:b2:38:b8:a8:36:ce:a7:1d:
         4f:f1:e1:cc:a6:70:cc:b9:59:5d:aa:b6:15:9e:ea:01:28:db:
         f6:74:2a:4a:18:38:3e:8a:e3:5f:3e:b0:76:da:81:41:fd:59:
         8f:92:73:89
-----BEGIN CERTIFICATE-----
MIIEDzCCAvegAwIBAgIEEAAAxjANBgkqhkiG9w0BAQUFADBEMQswCQYDVQQGEwJE
RTEPMA0GA1UECAwGSGVzc2VuMRQwEgYDVQQKDAtwcml2YWN5aWRlYTEOMAwGA1UE
AwwFQ0EwMDEwHhcNMTUxMjE4MTcxMDQ1WhcNMTYxMjE3MTcxMDQ1WjA9MSUwIwYD
VQQDExxzZWxmc2VydmljZSxDTj11c2VyLE89cmVhbG0xMRQwEgYJKoZIhvcNAQkB
FgVtZWluZTCCASIwDQYJKoZIhvcNAQEBBQADggEPADCCAQoCggEBAM881DMOEsTm
2s22VqEcJrsmHIpKc6hYirYes4uZ0h0HwpKJecBp2MjfKGGYHrP+riu9eKn3bkfc
o6AWjIUCwU6S/XJu8MgDKZu4AG7Ag5XINCA2nLPl5OZ2c6MarUCW4FNUAOx2eZrG
DX62vSnsg/PLiaTLbAC6DMV4D/9puJT0BHBDP9ie16f7Xc51jtrnxAexnd5viEu2
TZrP+bz6n80ybfY6Cw0jQnjsl0K/Dk1gVuHTAvIZy4RXkOVwoaKDNYbi2oaf+YrE
ebNSKNrLuzTK09qRSs+NdqKya5v5lv0JKtoRI03wy9aysQ4SbJoZZZiHyuTuJM5E
rJCPnRvFKp0CAwEAAaOCAQ4wggEKMAsGA1UdDwQEAwIFoDAJBgNVHRMEAjAAMBEG
CWCGSAGG+EIBAQQEAwIGQDAzBglghkgBhvhCAQ0EJhYkT3BlblNTTCBHZW5lcmF0
ZWQgU2VydmVyIENlcnRpZmljYXRlMB0GA1UdDgQWBBRNB5Ct/x0N5xrd1i76ujTL
qh8kxjB0BgNVHSMEbTBrgBT0p8DMkUavZPOR8if4yLJviocyc6FIpEYwRDELMAkG
A1UEBhMCREUxDzANBgNVBAgMBkhlc3NlbjEUMBIGA1UECgwLcHJpdmFjeWlkZWEx
DjAMBgNVBAMMBUNBMDAxggkA+8jrrIPNEgcwEwYDVR0lBAwwCgYIKwYBBQUHAwEw
DQYJKoZIhvcNAQEFBQADggEBALeAeIz/Cb/nwafZDzA3NnMy1UTqObNWGjV6cES2
ZPiQs7TOEMk+ndwxGTuXR11R3mNcyVN+KSpxzwDpKfP8/id9JLINEXbAw+JYGQsW
qPfjGeYOf1swZEmJd76EcggPL+Ectf3Cfs0nvPP5AfFamk0vYqHExa6FbazFp6Fz
5GGZZYCO02hBpPijEQEf9r9gZfk6ByhLsy9pjVe7kyEWKEIAgzIfzKs3//mh6whd
aGu8FoaFjD2j9xoetEqSXoxyBtI8tr4adBGjpLWetevlOBmyOLioNs6nHU/x4cym
cMy5WV2qthWe6gEo2/Z0KkoYOD6K418+sHbagUH9WY+Sc4k=
-----END CERTIFICATE-----
