Certificate:
    Data:
        Version: 3 (0x2)
        Serial Number: 268435653 (0x100000c5)
    Signature Algorithm: sha1WithRSAEncryption
        Issuer: C=DE, ST=Hessen, O=privacyidea, CN=CA001
        Validity
            Not Before: Dec 18 17:03:07 2015 GMT
            Not After : Dec 17 17:03:07 2016 GMT
        Subject: C=DE, ST=Hessen, O=privacyidea, CN=requester.localdomain
        Subject Public Key Info:
            Public Key Algorithm: rsaEncryption
                Public-Key: (2048 bit)
                Modulus:
                    00:cd:be:14:4f:fa:ce:01:3f:42:22:1b:1d:9c:af:
                    dd:92:d2:7f:db:6c:b7:3e:39:43:43:6b:13:03:f1:
                    05:f4:07:74:bc:76:69:28:0b:af:19:8e:d7:fc:e3:
                    cd:c6:58:f2:ca:7f:08:6d:53:fc:07:02:44:24:c6:
                    b4:34:4c:8c:04:fe:33:0e:40:e2:20:ba:02:73:5a:
                    f7:f5:4f:63:6e:cc:c6:b6:df:54:1d:37:39:7d:51:
                    36:26:5f:bd:dc:3f:a8:8b:6b:a2:ae:b6:9d:d6:21:
                    e7:df:41:b8:7a:28:2a:68:48:ca:a8:2d:ed:e1:e9:
                    46:5e:5a:72:6d:b4:84:38:87:91:fd:94:11:0b:28:
                    84:c6:c2:2f:2a:fb:01:f9:36:7a:09:75:d1:33:88:
                    3c:73:41:5b:c8:bf:94:89:70:a1:f0:c0:b9:2e:50:
                    53:1e:b1:17:64:69:f4:2d:81:e0:a9:0d:0e:32:e9:
                    ba:55:8a:85:f1:1b:6f:49:79:b4:7f:88:c3:0d:3e:
                    54:88:9b:3d:1f:38:8c:04:f3:ee:6a:63:2b:f5:c6:
                    db:b4:83:aa:c4:78:41:3a:7d:4b:e1:c8:3e:71:ca:
                    1b:61:59:ea:c6:c4:ca:32:5e:c9:e9:bf:12:29:e6:
                    c6:c3:63:fe:a0:55:da:7a:f1:60:98:4d:26:ed:fa:
                    70:2d
                Exponent: 65537 (0x10001)
        X509v3 extensions:
            X509v3 Key Usage: 
                Digital Signature, Key Encipherment
            X509v3 Basic Constraints: 
                CA:FALSE
            Netscape Cert Type: 
                SSL Server
            Netscape Comment: 
                OpenSSL Generated Server Certificate
            X509v3 Subject Key Identifier: 
                53:3F:ED:5D:09:07:B3:65:7B:AB:45:C9:24:5B:09:77:80:0A:96:ED
            X509v3 Authority Key Identifier: 
                keyid:F4:A7:C0:CC:91:46:AF:64:F3:91:F2:27:F8:C8:B2:6F:8A:87:32:73
                DirName:/C=DE/ST=Hessen/O=privacyidea/CN=CA001
                serial:FB:C8:EB:AC:83:CD:12:07

            X509v3 Extended Key Usage: 
                TLS Web Server Authentication
    Signature Algorithm: sha1WithRSAEncryption
         b1:ef:a1:11:c2:ff:19:9c:14:b0:51:2a:fc:4e:9c:d9:40:f7:
         b0:df:07:2e:9f:40:de:3d:69:fd:c6:b1:d0:f0:54:18:a8:3c:
         9b:89:57:3a:6c:34:fe:94:90:a4:49:99:14:91:aa:0a:fa:e5:
         62:99:73:20:9d:a5:92:6e:b0:a7:5b:81:c6:91:a5:b6:45:28:
         d4:02:32:55:f7:be:5e:95:b7:94:63:49:ec:4d:a1:d6:37:5f:
         b2:95:1d:36:74:6f:c5:2c:29:e1:53:e9:c0:d4:65:52:61:10:
         0a:b9:f6:54:43:6e:e4:cf:ad:11:18:0d:bd:98:65:6c:01:3e:
         25:2f:ca:57:09:7b:6a:b7:b9:4c:05:ac:2c:9f:97:12:a9:5d:
         aa:e7:1c:13:dd:54:46:b2:b1:94:a0:9c:7d:3c:b1:4c:d0:0c:
         1a:e3:70:4f:21:58:9b:65:47:02:b0:3a:8d:d4:69:d4:91:82:
         ff:be:cb:1d:6f:76:59:e3:8a:48:ba:62:59:c7:ea:7d:57:e1:
         9c:91:c9:2f:d7:a4:ea:7e:fc:ea:64:29:71:f7:ea:57:f1:f6:
         86:e0:eb:38:84:b6:06:76:53:d6:e3:42:59:b9:5e:c8:22:28:
         03:39:2d:ff:46:3b:f9:50:28:0f:65:8a:b9:99:25:12:63:23:
         7d:3b:71:db
-----BEGIN CERTIFICATE-----
MIIEJjCCAw6gAwIBAgIEEAAAxTANBgkqhkiG9w0BAQUFADBEMQswCQYDVQQGEwJE
RTEPMA0GA1UECAwGSGVzc2VuMRQwEgYDVQQKDAtwcml2YWN5aWRlYTEOMAwGA1UE
AwwFQ0EwMDEwHhcNMTUxMjE4MTcwMzA3WhcNMTYxMjE3MTcwMzA3WjBUMQswCQYD
VQQGEwJERTEPMA0GA1UECAwGSGVzc2VuMRQwEgYDVQQKDAtwcml2YWN5aWRlYTEe
MBwGA1UEAwwVcmVxdWVzdGVyLmxvY2FsZG9tYWluMIIBIjANBgkqhkiG9w0BAQEF
AAOCAQ8AMIIBCgKCAQEAzb4UT/rOAT9CIhsdnK/dktJ/22y3PjlDQ2sTA/EF9Ad0
vHZpKAuvGY7X/OPNxljyyn8IbVP8BwJEJMa0NEyMBP4zDkDiILoCc1r39U9jbszG
tt9UHTc5fVE2Jl+93D+oi2uirrad1iHn30G4eigqaEjKqC3t4elGXlpybbSEOIeR
/ZQRCyiExsIvKvsB+TZ6CXXRM4g8c0FbyL+UiXCh8MC5LlBTHrEXZGn0LYHgqQ0O
Mum6VYqF8RtvSXm0f4jDDT5UiJs9HziMBPPuamMr9cbbtIOqxHhBOn1L4cg+ccob
YVnqxsTKMl7J6b8SKebGw2P+oFXaevFgmE0m7fpwLQIDAQABo4IBDjCCAQowCwYD
VR0PBAQDAgWgMAkGA1UdEwQCMAAwEQYJYIZIAYb4QgEBBAQDAgZAMDMGCWCGSAGG
+EIBDQQmFiRPcGVuU1NMIEdlbmVyYXRlZCBTZXJ2ZXIgQ2VydGlmaWNhdGUwHQYD
VR0OBBYEFFM/7V0JB7Nle6tFySRbCXeACpbtMHQGA1UdIwRtMGuAFPSnwMyRRq9k
85HyJ/jIsm+KhzJzoUikRjBEMQswCQYDVQQGEwJERTEPMA0GA1UECAwGSGVzc2Vu
MRQwEgYDVQQKDAtwcml2YWN5aWRlYTEOMAwGA1UEAwwFQ0EwMDGCCQD7yOusg80S
BzATBgNVHSUEDDAKBggrBgEFBQcDATANBgkqhkiG9w0BAQUFAAOCAQEAse+hEcL/
GZwUsFEq/E6c2UD3sN8HLp9A3j1p/cax0PBUGKg8m4lXOmw0/pSQpEmZFJGqCvrl
YplzIJ2lkm6wp1uBxpGltkUo1AIyVfe+XpW3lGNJ7E2h1jdfspUdNnRvxSwp4VPp
wNRlUmEQCrn2VENu5M+tERgNvZhlbAE+JS/KVwl7are5TAWsLJ+XEqldquccE91U
RrKxlKCcfTyxTNAMGuNwTyFYm2VHArA6jdRp1JGC/77LHW92WeOKSLpiWcfqfVfh
nJHJL9ek6n786mQpcffqV/H2huDrOIS2BnZT1uNCWbleyCIoAzkt/0Y7+VAoD2WK
uZklEmMjfTtx2w==
-----END CERTIFICATE-----
