Certificate:
    Data:
        Version: 3 (0x2)
        Serial Number: 268435652 (0x100000c4)
    Signature Algorithm: sha1WithRSAEncryption
        Issuer: C=DE, ST=Hessen, O=privacyidea, CN=CA001
        Validity
            Not Before: Dec 18 17:00:59 2015 GMT
            Not After : Dec 17 17:00:59 2016 GMT
        Subject: CN=Steve Test/emailAddress=steve@openssl.org
        Subject Public Key Info:
            Public Key Algorithm: rsaEncryption
                Public-Key: (2048 bit)
                Modulus:
                    00:d2:81:89:20:51:48:0f:73:f4:11:32:24:d5:1f:
                    1c:fd:5c:f5:b6:e6:c5:f0:52:81:dc:d2:af:66:4a:
                    7c:93:31:61:5c:af:d1:6d:06:70:03:60:7c:72:0c:
                    88:dd:49:cd:9e:02:6c:d2:5a:d7:53:0f:f3:da:be:
                    69:64:b5:0f:0c:00:e3:b3:50:47:a3:b3:9b:ba:13:
                    50:d6:58:5a:4b:ab:39:e0:11:ca:0a:27:67:03:78:
                    22:66:6d:92:1e:1b:5c:49:ae:e6:6b:d1:8e:3b:9d:
                    06:d3:c6:ac:4d:53:43:10:ab:e8:96:c1:87:82:97:
                    99:8f:20:d3:99:12:37:31:84:e1:8a:ff:29:03:5f:
                    22:90:3e:7f:9b:e0:20:c1:ad:dc:ae:4c:39:1a:31:
                    96:17:02:8c:b2:d9:b4:0d:20:12:9b:7d:86:54:fd:
                    33:fd:c1:2a:62:46:f8:60:96:cf:6e:01:6f:22:df:
                    13:47:e7:97:ec:05:72:23:a3:62:f8:fa:ef:ac:9c:
                    72:f0:37:cb:2f:37:cf:90:a8:27:51:86:c6:d7:78:
                    08:8f:7e:25:a2:15:70:a2:fb:1c:b6:15:5e:a0:97:
                    8b:81:4c:09:28:8a:27:3b:94:bc:71:db:5b:71:37:
                    9a:2b:16:e0:6f:b5:c9:f5:4b:4f:20:ba:65:cf:af:
                    ad:ad
                Exponent: 65537 (0x10001)
        X509v3 extensions:
            X509v3 Key Usage: 
                Digital Signature, Key Encipherment
            X509v3 Basic Constraints: 
                CA:FALSE
            Netscape Cert Type: 
                SSL Server
            Netscape Comment: 
                OpenSSL Generated Server Certificate
            X509v3 Subject Key Identifier: 
                E5:25:6D:3E:AF:0D:DD:3F:4C:F2:45:19:39:D5:14:DB:7E:9C:C0:AD
            X509v3 Authority Key Identifier: 
                keyid:F4:A7:C0:CC:91:46:AF:64:F3:91:F2:27:F8:C8:B2:6F:8A:87:32:73
                DirName:/C=DE/ST=Hessen/O=privacyidea/CN=CA001
                serial:FB:C8:EB:AC:83:CD:12:07

            X509v3 Extended Key Usage: 
                TLS Web Server Authentication
    Signature Algorithm: sha1WithRSAEncryption
         36:e7:8e:a9:fb:27:1a:b1:86:8c:fd:fb:88:de:9b:f4:d7:1a:
         ea:09:ef:c8:bd:e3:7c:5e:c5:fd:b8:cc:a4:61:8e:d8:b6:d9:
         b9:43:a4:e3:83:05:be:b3:47:e4:00:88:85:a9:e1:ab:4f:7c:
         5b:e8:ba:e8:a1:9c:5f:9f:e8:9c:d2:26:f4:1d:08:d2:3f:9d:
         73:c1:fa:ac:82:80:b3:61:fa:31:03:bb:1b:66:ae:8d:0c:63:
         b3:4e:42:2d:fb:0f:bf:9c:df:8d:a3:ab:1a:e6:d7:62:52:d1:
         16:d7:0a:c1:6a:02:a9:d8:72:1d:49:c1:54:74:bf:b5:c5:7c:
         f4:c8:a4:b3:94:ca:06:62:68:e6:ad:c7:b1:c5:88:5a:42:98:
         26:5c:00:0e:ff:24:c9:0f:a0:f1:eb:4e:e7:a0:43:9f:1c:b2:
         bc:d6:23:b7:15:a3:fc:02:03:07:60:45:5d:35:e7:3b:99:2b:
         84:dc:5a:22:dd:ac:b5:c9:56:ca:ef:4d:cb:6e:9a:90:94:26:
         dd:d0:67:d9:a1:93:41:96:83:c5:6b:f5:47:bd:52:1a:b1:f1:
         9c:c5:c8:9f:74:47:e0:92:86:e1:45:f3:c8:6c:4f:0d:09:94:
         90:d2:18:01:43:df:5c:d0:19:a7:bc:5f:af:ec:ec:9b:c7:a0:
         14:9b:e7:aa
-----BEGIN CERTIFICATE-----
MIIECTCCAvGgAwIBAgIEEAAAxDANBgkqhkiG9w0BAQUFADBEMQswCQYDVQQGEwJE
RTEPMA0GA1UECAwGSGVzc2VuMRQwEgYDVQQKDAtwcml2YWN5aWRlYTEOMAwGA1UE
AwwFQ0EwMDEwHhcNMTUxMjE4MTcwMDU5WhcNMTYxMjE3MTcwMDU5WjA3MRMwEQYD
VQQDEwpTdGV2ZSBUZXN0MSAwHgYJKoZIhvcNAQkBFhFzdGV2ZUBvcGVuc3NsLm9y
ZzCCASIwDQYJKoZIhvcNAQEBBQADggEPADCCAQoCggEBANKBiSBRSA9z9BEyJNUf
HP1c9bbmxfBSgdzSr2ZKfJMxYVyv0W0GcANgfHIMiN1JzZ4CbNJa11MP89q+aWS1
DwwA47NQR6Ozm7oTUNZYWkurOeARygonZwN4ImZtkh4bXEmu5mvRjjudBtPGrE1T
QxCr6JbBh4KXmY8g05kSNzGE4Yr/KQNfIpA+f5vgIMGt3K5MORoxlhcCjLLZtA0g
Ept9hlT9M/3BKmJG+GCWz24BbyLfE0fnl+wFciOjYvj676yccvA3yy83z5CoJ1GG
xtd4CI9+JaIVcKL7HLYVXqCXi4FMCSiKJzuUvHHbW3E3misW4G+1yfVLTyC6Zc+v
ra0CAwEAAaOCAQ4wggEKMAsGA1UdDwQEAwIFoDAJBgNVHRMEAjAAMBEGCWCGSAGG
+EIBAQQEAwIGQDAzBglghkgBhvhCAQ0EJhYkT3BlblNTTCBHZW5lcmF0ZWQgU2Vy
dmVyIENlcnRpZmljYXRlMB0GA1UdDgQWBBTlJW0+rw3dP0zyRRk51RTbfpzArTB0
BgNVHSMEbTBrgBT0p8DMkUavZPOR8if4yLJviocyc6FIpEYwRDELMAkGA1UEBhMC
REUxDzANBgNVBAgMBkhlc3NlbjEUMBIGA1UECgwLcHJpdmFjeWlkZWExDjAMBgNV
BAMMBUNBMDAxggkA+8jrrIPNEgcwEwYDVR0lBAwwCgYIKwYBBQUHAwEwDQYJKoZI
hvcNAQEFBQADggEBADbnjqn7Jxqxhoz9+4jem/TXGuoJ78i943xexf24zKRhjti2
2blDpOODBb6zR+QAiIWp4atPfFvouuihnF+f6JzSJvQdCNI/nXPB+qyCgLNh+jED
uxtmro0MY7NOQi37D7+c342jqxrm12JS0RbXCsFqAqnYch1JwVR0v7XFfPTIpLOU
ygZiaOatx7HFiFpCmCZcAA7/JMkPoPHrTuegQ58csrzWI7cVo/wCAwdgRV015zuZ
K4TcWiLdrLXJVsrvTctumpCUJt3QZ9mhk0GWg8Vr9Ue9Uhqx8ZzFyJ90R+CShuFF
88hsTw0JlJDSGAFD31zQGae8X6/s7JvHoBSb56o=
-----END CERTIFICATE-----
