Certificate:
    Data:
        Version: 3 (0x2)
        Serial Number: 268435650 (0x100000c2)
    Signature Algorithm: sha1WithRSAEncryption
        Issuer: C=DE, ST=Hessen, O=privacyidea, CN=CA001
        Validity
            Not Before: Dec 18 17:00:59 2015 GMT
            Not After : Dec 17 17:00:59 2016 GMT
        Subject: C=DE, ST=Hessen, O=privacyidea, CN=requester.localdomain
        Subject Public Key Info:
            Public Key Algorithm: rsaEncryption
                Public-Key: (2048 bit)
                Modulus:
                    00:cd:be:14:4f:fa:ce:01:3f:42:22:1b:1d:9c:af:
                    dd:92:d2:7f:db:6c:b7:3e:39:43:43:6b:13:03:f1:
                    05:f4:07:74:bc:76:69:28:0b:af:19:8e:d7:fc:e3:
                    cd:c6:58:f2:ca:7f:08:6d:53:fc:07:02:44:24:c6:
                    b4:34:4c:8c:04:fe:33:0e:40:e2:20:ba:02:73:5a:
                    f7:f5:4f:63:6e:cc:c6:b6:df:54:1d:37:39:7d:51:
                    36:26:5f:bd:dc:3f:a8:8b:6b:a2:ae:b6:9d:d6:21:
                    e7:df:41:b8:7a:28:2a:68:48:ca:a8:2d:ed:e1:e9:
                    46:5e:5a:72:6d:b4:84:38:87:91:fd:94:11:0b:28:
                    84:c6:c2:2f:2a:fb:01:f9:36:7a:09:75:d1:33:88:
                    3c:73:41:5b:c8:bf:94:89:70:a1:f0:c0:b9:2e:50:
                    53:1e:b1:17:64:69:f4:2d:81:e0:a9:0d:0e:32:e9:
                    ba:55:8a:85:f1:1b:6f:49:79:b4:7f:88:c3:0d:3e:
                    54:88:9b:3d:1f:38:8c:04:f3:ee:6a:63:2b:f5:c6:
                    db:b4:83:aa:c4:78:41:3a:7d:4b:e1:c8:3e:71:ca:
                    1b:61:59:ea:c6:c4:ca:32:5e:c9:e9:bf:12:29:e6:
                    c6:c3:63:fe:a0:55:da:7a:f1:60:98:4d:26:ed:fa:
                    70:2d
                Exponent: 65537 (0x10001)
        X509v3 extensions:
            X509v3 Key Usage: 
                Digital Signature, Key Encipherment
            X509v3 Basic Constraints: 
                CA:FALSE
            Netscape Cert Type: 
                SSL Server
            Netscape Comment: 
                OpenSSL Generated Server Certificate
            X509v3 Subject Key Identifier: 
                53:3F:ED:5D:09:07:B3:65:7B:AB:45:C9:24:5B:09:77:80:0A:96:ED
            X509v3 Authority Key Identifier: 
                keyid:F4:A7:C0:CC:91:46:AF:64:F3:91:F2:27:F8:C8:B2:6F:8A:87:32:73
                DirName:/C=DE/ST=Hessen/O=privacyidea/CN=CA001
                serial:FB:C8:EB:AC:83:CD:12:07

            X509v3 Extended Key Usage: 
                TLS Web Server Authentication
    Signature Algorithm: sha1WithRSAEncryption
         71:f0:48:cc:e0:2a:cb:0a:8a:ab:65:23:aa:e2:73:eb:08:e5:
         2d:8a:f9:99:05:54:9f:29:7e:1b:84:81:69:8f:8c:01:ca:8c:
         55:3d:96:24:ca:ca:3a:9e:85:06:dc:42:79:b6:64:7c:c7:e8:
         a0:15:09:3d:db:01:6a:da:f8:9f:e2:2e:a1:b9:6f:69:ab:ed:
         1e:da:8b:4b:52:d8:1c:9f:95:7e:b9:64:0b:da:ab:5b:e7:ad:
         73:8e:08:07:69:9c:19:61:ff:c0:0f:f4:6f:0d:2d:9a:65:17:
         2c:34:d7:34:19:a8:86:87:67:24:40:c0:f5:b9:66:28:86:18:
         4e:f3:f3:82:fc:5b:6f:8e:5d:cc:cf:43:c3:ab:77:3f:f8:cb:
         13:e6:6e:0d:ef:f7:04:71:9a:82:92:38:86:8b:59:a1:07:c8:
         a7:9b:3e:79:e2:0c:13:3e:2c:65:aa:48:f9:c4:a9:e2:d4:6a:
         51:af:21:6f:a7:2f:ca:5f:c1:03:e6:eb:58:a0:bc:93:c1:f6:
         d0:59:16:8e:44:dc:86:4b:65:ee:80:41:57:66:1b:a7:3e:b3:
         27:7c:0a:17:bc:bd:aa:31:65:66:0c:73:01:23:be:81:43:10:
         9d:a2:82:26:6f:66:ec:d2:75:19:c5:01:ed:e5:7b:d2:1a:3f:
         bf:97:d1:7c
-----BEGIN CERTIFICATE-----
MIIEJjCCAw6gAwIBAgIEEAAAwjANBgkqhkiG9w0BAQUFADBEMQswCQYDVQQGEwJE
RTEPMA0GA1UECAwGSGVzc2VuMRQwEgYDVQQKDAtwcml2YWN5aWRlYTEOMAwGA1UE
AwwFQ0EwMDEwHhcNMTUxMjE4MTcwMDU5WhcNMTYxMjE3MTcwMDU5WjBUMQswCQYD
VQQGEwJERTEPMA0GA1UECAwGSGVzc2VuMRQwEgYDVQQKDAtwcml2YWN5aWRlYTEe
MBwGA1UEAwwVcmVxdWVzdGVyLmxvY2FsZG9tYWluMIIBIjANBgkqhkiG9w0BAQEF
AAOCAQ8AMIIBCgKCAQEAzb4UT/rOAT9CIhsdnK/dktJ/22y3PjlDQ2sTA/EF9Ad0
vHZpKAuvGY7X/OPNxljyyn8IbVP8BwJEJMa0NEyMBP4zDkDiILoCc1r39U9jbszG
tt9UHTc5fVE2Jl+93D+oi2uirrad1iHn30G4eigqaEjKqC3t4elGXlpybbSEOIeR
/ZQRCyiExsIvKvsB+TZ6CXXRM4g8c0FbyL+UiXCh8MC5LlBTHrEXZGn0LYHgqQ0O
Mum6VYqF8RtvSXm0f4jDDT5UiJs9HziMBPPuamMr9cbbtIOqxHhBOn1L4cg+ccob
YVnqxsTKMl7J6b8SKebGw2P+oFXaevFgmE0m7fpwLQIDAQABo4IBDjCCAQowCwYD
VR0PBAQDAgWgMAkGA1UdEwQCMAAwEQYJYIZIAYb4QgEBBAQDAgZAMDMGCWCGSAGG
+EIBDQQmFiRPcGVuU1NMIEdlbmVyYXRlZCBTZXJ2ZXIgQ2VydGlmaWNhdGUwHQYD
VR0OBBYEFFM/7V0JB7Nle6tFySRbCXeACpbtMHQGA1UdIwRtMGuAFPSnwMyRRq9k
85HyJ/jIsm+KhzJzoUikRjBEMQswCQYDVQQGEwJERTEPMA0GA1UECAwGSGVzc2Vu
MRQwEgYDVQQKDAtwcml2YWN5aWRlYTEOMAwGA1UEAwwFQ0EwMDGCCQD7yOusg80S
BzATBgNVHSUEDDAKBggrBgEFBQcDATANBgkqhkiG9w0BAQUFAAOCAQEAcfBIzOAq
ywqKq2UjquJz6wjlLYr5mQVUnyl+G4SBaY+MAcqMVT2WJMrKOp6FBtxCebZkfMfo
oBUJPdsBatr4n+IuoblvaavtHtqLS1LYHJ+VfrlkC9qrW+etc44IB2mcGWH/wA/0
bw0tmmUXLDTXNBmohodnJEDA9blmKIYYTvPzgvxbb45dzM9Dw6t3P/jLE+ZuDe/3
BHGagpI4hotZoQfIp5s+eeIMEz4sZapI+cSp4tRqUa8hb6cvyl/BA+brWKC8k8H2
0FkWjkTchktl7oBBV2Ybpz6zJ3wKF7y9qjFlZgxzASO+gUMQnaKCJm9m7NJ1GcUB
7eV70ho/v5fRfA==
-----END CERTIFICATE-----
