Certificate:
    Data:
        Version: 3 (0x2)
        Serial Number: 268435657 (0x100000c9)
    Signature Algorithm: sha1WithRSAEncryption
        Issuer: C=DE, ST=Hessen, O=privacyidea, CN=CA001
        Validity
            Not Before: Dec 18 17:14:11 2015 GMT
            Not After : Dec 17 17:14:11 2016 GMT
        Subject: C=DE, ST=Hessen, O=privacyidea, CN=usercert
        Subject Public Key Info:
            Public Key Algorithm: rsaEncryption
                Public-Key: (2048 bit)
                Modulus:
                    00:dc:2f:d1:5f:29:97:d4:7c:c3:53:c8:30:bd:4b:
                    67:70:2c:24:6b:b8:5e:eb:21:7a:48:12:56:7c:81:
                    5c:48:75:b6:68:eb:f6:f2:98:4e:50:51:d1:7f:6c:
                    73:f3:0a:a7:ae:be:48:5e:e5:d6:e1:d9:2a:7c:32:
                    6e:4e:fd:08:f6:5a:54:49:23:73:c3:b9:07:18:d1:
                    ef:b3:ac:f8:8a:dc:94:96:a4:90:3a:8e:74:df:e6:
                    0d:37:1b:bd:5b:b7:25:1a:56:39:da:6f:91:aa:5e:
                    1c:74:f3:f9:7c:14:01:83:12:65:76:c7:bb:fe:36:
                    5b:95:e9:72:65:83:ed:3e:98:30:71:fa:87:dd:a3:
                    36:5a:30:03:2e:26:e0:61:d1:bf:02:3f:b6:06:1f:
                    4a:89:28:1c:5c:a2:ff:4e:be:94:e6:8c:e0:da:82:
                    f1:9d:29:32:48:30:73:b4:04:f6:42:1e:be:f7:e2:
                    32:32:27:3c:9d:89:2f:70:3e:85:9a:6f:5c:c5:09:
                    c0:8c:32:2f:72:22:c9:d2:95:1f:b6:ac:72:60:72:
                    b7:82:4d:6b:ce:5b:e3:00:d0:d2:2f:58:c6:e0:10:
                    e5:51:ca:4d:3b:2e:e6:7e:ab:84:d6:56:f1:93:35:
                    a0:93:64:26:81:75:2f:91:b5:16:06:38:0b:db:cc:
                    2d:07
                Exponent: 65537 (0x10001)
        X509v3 extensions:
            X509v3 Key Usage: 
                Digital Signature, Key Encipherment
            X509v3 Basic Constraints: 
                CA:FALSE
            Netscape Cert Type: 
                SSL Server
            Netscape Comment: 
                OpenSSL Generated Server Certificate
            X509v3 Subject Key Identifier: 
                FC:14:D1:F0:4B:8D:00:90:F2:F5:B8:71:9E:4E:97:C3:92:54:AD:0B
            X509v3 Authority Key Identifier: 
                keyid:F4:A7:C0:CC:91:46:AF:64:F3:91:F2:27:F8:C8:B2:6F:8A:87:32:73
                DirName:/C=DE/ST=Hessen/O=privacyidea/CN=CA001
                serial:FB:C8:EB:AC:83:CD:12:07

            X509v3 Extended Key Usage: 
                TLS Web Server Authentication
    Signature Algorithm: sha1WithRSAEncryption
         33:e1:cd:1f:ed:db:28:7d:e8:f8:93:5f:9a:e6:15:4b:e8:94:
         92:01:ad:25:8b:9a:e7:a6:6a:fd:82:37:da:d3:5f:67:01:f2:
         0d:8a:94:65:b4:d5:c9:87:54:55:f3:fe:e7:c0:c7:af:e3:16:
         53:1c:2b:1d:94:2a:4b:ed:e8:11:01:29:06:4c:62:e0:42:3b:
         82:80:47:63:c2:21:4b:03:3b:ba:51:e5:f2:c6:0b:dc:28:dc:
         18:19:7d:ee:73:46:ff:b7:6e:41:33:e7:05:0e:f0:7b:4f:3b:
         73:8c:45:53:27:fa:a7:12:8b:c8:d0:d3:2e:a7:81:74:b3:3e:
         3d:fc:92:81:6a:e9:eb:c2:c9:1d:34:b7:55:5e:e8:3b:be:45:
         91:b8:af:05:21:9b:be:de:69:e4:3f:0f:35:b4:fe:57:89:d4:
         21:90:0b:ef:84:6f:bf:92:ac:81:8c:3d:26:67:de:ce:de:a5:
         cf:7a:3c:41:2b:38:fd:bf:49:ba:6b:21:d0:44:ff:b8:9b:d5:
         3a:fe:28:f1:72:33:ba:a2:f0:a5:c1:d6:b5:15:c2:33:f7:be:
         3f:93:62:ba:d7:b3:b5:06:e9:b0:58:6f:8f:06:15:7c:cd:18:
         69:42:a7:6c:28:58:3d:27:5e:e1:f8:72:ad:48:a8:0b:92:b7:
         eb:ad:13:22
-----BEGIN CERTIFICATE-----
MIIEGTCCAwGgAwIBAgIEEAAAyTANBgkqhkiG9w0BAQUFADBEMQswCQYDVQQGEwJE
RTEPMA0GA1UECAwGSGVzc2VuMRQwEgYDVQQKDAtwcml2YWN5aWRlYTEOMAwGA1UE
AwwFQ0EwMDEwHhcNMTUxMjE4MTcxNDExWhcNMTYxMjE3MTcxNDExWjBHMQswCQYD
VQQGEwJERTEPMA0GA1UECAwGSGVzc2VuMRQwEgYDVQQKDAtwcml2YWN5aWRlYTER
MA8GA1UEAwwIdXNlcmNlcnQwggEiMA0GCSqGSIb3DQEBAQUAA4IBDwAwggEKAoIB
AQDcL9FfKZfUfMNTyDC9S2dwLCRruF7rIXpIElZ8gVxIdbZo6/bymE5QUdF/bHPz
Cqeuvkhe5dbh2Sp8Mm5O/Qj2WlRJI3PDuQcY0e+zrPiK3JSWpJA6jnTf5g03G71b
tyUaVjnab5GqXhx08/l8FAGDEmV2x7v+NluV6XJlg+0+mDBx+ofdozZaMAMuJuBh
0b8CP7YGH0qJKBxcov9OvpTmjODagvGdKTJIMHO0BPZCHr734jIyJzydiS9wPoWa
b1zFCcCMMi9yIsnSlR+2rHJgcreCTWvOW+MA0NIvWMbgEOVRyk07LuZ+q4TWVvGT
NaCTZCaBdS+RtRYGOAvbzC0HAgMBAAGjggEOMIIBCjALBgNVHQ8EBAMCBaAwCQYD
VR0TBAIwADARBglghkgBhvhCAQEEBAMCBkAwMwYJYIZIAYb4QgENBCYWJE9wZW5T
U0wgR2VuZXJhdGVkIFNlcnZlciBDZXJ0aWZpY2F0ZTAdBgNVHQ4EFgQU/BTR8EuN
AJDy9bhxnk6Xw5JUrQswdAYDVR0jBG0wa4AU9KfAzJFGr2TzkfIn+Miyb4qHMnOh
SKRGMEQxCzAJBgNVBAYTAkRFMQ8wDQYDVQQIDAZIZXNzZW4xFDASBgNVBAoMC3By
aXZhY3lpZGVhMQ4wDAYDVQQDDAVDQTAwMYIJAPvI66yDzRIHMBMGA1UdJQQMMAoG
CCsGAQUFBwMBMA0GCSqGSIb3DQEBBQUAA4IBAQAz4c0f7dsofej4k1+a5hVL6JSS
Aa0li5rnpmr9gjfa019nAfINipRltNXJh1RV8/7nwMev4xZTHCsdlCpL7egRASkG
TGLgQjuCgEdjwiFLAzu6UeXyxgvcKNwYGX3uc0b/t25BM+cFDvB7TztzjEVTJ/qn
EovI0NMup4F0sz49/JKBaunrwskdNLdVXug7vkWRuK8FIZu+3mnkPw81tP5XidQh
kAvvhG+/kqyBjD0mZ97O3qXPejxBKzj9v0m6ayHQRP+4m9U6/ijxcjO6ovClwda1
FcIz974/k2K617O1BumwWG+PBhV8zRhpQqdsKFg9J17h+HKtSKgLkrfrrRMi
-----END CERTIFICATE-----
