Certificate:
    Data:
        Version: 3 (0x2)
        Serial Number: 268435651 (0x100000c3)
    Signature Algorithm: sha1WithRSAEncryption
        Issuer: C=DE, ST=Hessen, O=privacyidea, CN=CA001
        Validity
            Not Before: Dec 18 17:00:59 2015 GMT
            Not After : Dec 17 17:00:59 2016 GMT
        Subject: C=DE, ST=Hessen, O=privacyidea, CN=usercert
        Subject Public Key Info:
            Public Key Algorithm: rsaEncryption
                Public-Key: (2048 bit)
                Modulus:
                    00:dc:2f:d1:5f:29:97:d4:7c:c3:53:c8:30:bd:4b:
                    67:70:2c:24:6b:b8:5e:eb:21:7a:48:12:56:7c:81:
                    5c:48:75:b6:68:eb:f6:f2:98:4e:50:51:d1:7f:6c:
                    73:f3:0a:a7:ae:be:48:5e:e5:d6:e1:d9:2a:7c:32:
                    6e:4e:fd:08:f6:5a:54:49:23:73:c3:b9:07:18:d1:
                    ef:b3:ac:f8:8a:dc:94:96:a4:90:3a:8e:74:df:e6:
                    0d:37:1b:bd:5b:b7:25:1a:56:39:da:6f:91:aa:5e:
                    1c:74:f3:f9:7c:14:01:83:12:65:76:c7:bb:fe:36:
                    5b:95:e9:72:65:83:ed:3e:98:30:71:fa:87:dd:a3:
                    36:5a:30:03:2e:26:e0:61:d1:bf:02:3f:b6:06:1f:
                    4a:89:28:1c:5c:a2:ff:4e:be:94:e6:8c:e0:da:82:
                    f1:9d:29:32:48:30:73:b4:04:f6:42:1e:be:f7:e2:
                    32:32:27:3c:9d:89:2f:70:3e:85:9a:6f:5c:c5:09:
                    c0:8c:32:2f:72:22:c9:d2:95:1f:b6:ac:72:60:72:
                    b7:82:4d:6b:ce:5b:e3:00:d0:d2:2f:58:c6:e0:10:
                    e5:51:ca:4d:3b:2e:e6:7e:ab:84:d6:56:f1:93:35:
                    a0:93:64:26:81:75:2f:91:b5:16:06:38:0b:db:cc:
                    2d:07
                Exponent: 65537 (0x10001)
        X509v3 extensions:
            X509v3 Key Usage: 
                Digital Signature, Key Encipherment
            X509v3 Basic Constraints: 
                CA:FALSE
            Netscape Cert Type: 
                SSL Server
            Netscape Comment: 
                OpenSSL Generated Server Certificate
            X509v3 Subject Key Identifier: 
                FC:14:D1:F0:4B:8D:00:90:F2:F5:B8:71:9E:4E:97:C3:92:54:AD:0B
            X509v3 Authority Key Identifier: 
                keyid:F4:A7:C0:CC:91:46:AF:64:F3:91:F2:27:F8:C8:B2:6F:8A:87:32:73
                DirName:/C=DE/ST=Hessen/O=privacyidea/CN=CA001
                serial:FB:C8:EB:AC:83:CD:12:07

            X509v3 Extended Key Usage: 
                TLS Web Server Authentication
    Signature Algorithm: sha1WithRSAEncryption
         61:77:4b:72:e8:0b:7e:b0:bd:49:07:02:d3:b7:9e:96:3c:dd:
         10:8a:b3:86:b6:38:34:32:61:83:57:58:59:19:b0:47:c5:59:
         56:36:31:0b:0b:6e:9b:32:e2:9e:e6:c2:05:f8:37:19:4e:95:
         60:74:6c:b5:a2:51:81:93:45:fd:2e:84:0c:c2:9c:8d:b1:58:
         d1:6a:4a:f2:3b:47:ac:d8:6c:44:a5:e4:f7:82:17:aa:1d:0b:
         3c:00:d0:5b:c4:0f:d0:96:fd:eb:b7:6c:37:6b:33:87:68:02:
         a2:c2:5c:22:80:99:c9:09:80:22:7d:96:b9:5a:96:7f:6d:17:
         cd:46:d2:14:57:a5:16:1e:d5:09:ee:3d:59:a9:3f:2f:c7:d1:
         67:89:f8:f6:b3:ca:ad:68:51:04:a5:c0:2f:ab:33:73:de:10:
         13:db:42:15:d1:19:8a:27:4e:6e:80:ac:a4:d7:20:33:21:41:
         84:2a:4d:d5:98:4a:e7:b5:ea:38:3e:15:95:70:07:b5:7f:fd:
         ed:28:e8:bf:71:0a:38:9c:51:33:9e:cc:38:c3:07:98:81:68:
         90:80:5a:b2:cc:54:f7:1b:1a:44:4a:d7:41:97:5e:bd:e4:0b:
         3d:be:16:ef:ef:20:93:89:ea:b9:60:31:e1:ed:47:df:ae:0a:
         a6:2d:f8:b6
-----BEGIN CERTIFICATE-----
MIIEGTCCAwGgAwIBAgIEEAAAwzANBgkqhkiG9w0BAQUFADBEMQswCQYDVQQGEwJE
RTEPMA0GA1UECAwGSGVzc2VuMRQwEgYDVQQKDAtwcml2YWN5aWRlYTEOMAwGA1UE
AwwFQ0EwMDEwHhcNMTUxMjE4MTcwMDU5WhcNMTYxMjE3MTcwMDU5WjBHMQswCQYD
VQQGEwJERTEPMA0GA1UECAwGSGVzc2VuMRQwEgYDVQQKDAtwcml2YWN5aWRlYTER
MA8GA1UEAwwIdXNlcmNlcnQwggEiMA0GCSqGSIb3DQEBAQUAA4IBDwAwggEKAoIB
AQDcL9FfKZfUfMNTyDC9S2dwLCRruF7rIXpIElZ8gVxIdbZo6/bymE5QUdF/bHPz
Cqeuvkhe5dbh2Sp8Mm5O/Qj2WlRJI3PDuQcY0e+zrPiK3JSWpJA6jnTf5g03G71b
tyUaVjnab5GqXhx08/l8FAGDEmV2x7v+NluV6XJlg+0+mDBx+ofdozZaMAMuJuBh
0b8CP7YGH0qJKBxcov9OvpTmjODagvGdKTJIMHO0BPZCHr734jIyJzydiS9wPoWa
b1zFCcCMMi9yIsnSlR+2rHJgcreCTWvOW+MA0NIvWMbgEOVRyk07LuZ+q4TWVvGT
NaCTZCaBdS+RtRYGOAvbzC0HAgMBAAGjggEOMIIBCjALBgNVHQ8EBAMCBaAwCQYD
VR0TBAIwADARBglghkgBhvhCAQEEBAMCBkAwMwYJYIZIAYb4QgENBCYWJE9wZW5T
U0wgR2VuZXJhdGVkIFNlcnZlciBDZXJ0aWZpY2F0ZTAdBgNVHQ4EFgQU/BTR8EuN
AJDy9bhxnk6Xw5JUrQswdAYDVR0jBG0wa4AU9KfAzJFGr2TzkfIn+Miyb4qHMnOh
SKRGMEQxCzAJBgNVBAYTAkRFMQ8wDQYDVQQIDAZIZXNzZW4xFDASBgNVBAoMC3By
aXZhY3lpZGVhMQ4wDAYDVQQDDAVDQTAwMYIJAPvI66yDzRIHMBMGA1UdJQQMMAoG
CCsGAQUFBwMBMA0GCSqGSIb3DQEBBQUAA4IBAQBhd0ty6At+sL1JBwLTt56WPN0Q
irOGtjg0MmGDV1hZGbBHxVlWNjELC26bMuKe5sIF+DcZTpVgdGy1olGBk0X9LoQM
wpyNsVjRakryO0es2GxEpeT3gheqHQs8ANBbxA/Qlv3rt2w3azOHaAKiwlwigJnJ
CYAifZa5WpZ/bRfNRtIUV6UWHtUJ7j1ZqT8vx9Fnifj2s8qtaFEEpcAvqzNz3hAT
20IV0RmKJ05ugKyk1yAzIUGEKk3VmErnteo4PhWVcAe1f/3tKOi/cQo4nFEznsw4
wweYgWiQgFqyzFT3GxpEStdBl1695As9vhbv7yCTieq5YDHh7UffrgqmLfi2
-----END CERTIFICATE-----
