Certificate:
    Data:
        Version: 3 (0x2)
        Serial Number: 268435661 (0x100000cd)
    Signature Algorithm: sha1WithRSAEncryption
        Issuer: C=DE, ST=Hessen, O=privacyidea, CN=CA001
        Validity
            Not Before: Feb 22 15:30:07 2016 GMT
            Not After : Feb 21 15:30:07 2017 GMT
        Subject: C=DE, ST=Hessen, O=privacyidea, CN=requester.localdomain
        Subject Public Key Info:
            Public Key Algorithm: rsaEncryption
                Public-Key: (2048 bit)
                Modulus:
                    00:cd:be:14:4f:fa:ce:01:3f:42:22:1b:1d:9c:af:
                    dd:92:d2:7f:db:6c:b7:3e:39:43:43:6b:13:03:f1:
                    05:f4:07:74:bc:76:69:28:0b:af:19:8e:d7:fc:e3:
                    cd:c6:58:f2:ca:7f:08:6d:53:fc:07:02:44:24:c6:
                    b4:34:4c:8c:04:fe:33:0e:40:e2:20:ba:02:73:5a:
                    f7:f5:4f:63:6e:cc:c6:b6:df:54:1d:37:39:7d:51:
                    36:26:5f:bd:dc:3f:a8:8b:6b:a2:ae:b6:9d:d6:21:
                    e7:df:41:b8:7a:28:2a:68:48:ca:a8:2d:ed:e1:e9:
                    46:5e:5a:72:6d:b4:84:38:87:91:fd:94:11:0b:28:
                    84:c6:c2:2f:2a:fb:01:f9:36:7a:09:75:d1:33:88:
                    3c:73:41:5b:c8:bf:94:89:70:a1:f0:c0:b9:2e:50:
                    53:1e:b1:17:64:69:f4:2d:81:e0:a9:0d:0e:32:e9:
                    ba:55:8a:85:f1:1b:6f:49:79:b4:7f:88:c3:0d:3e:
                    54:88:9b:3d:1f:38:8c:04:f3:ee:6a:63:2b:f5:c6:
                    db:b4:83:aa:c4:78:41:3a:7d:4b:e1:c8:3e:71:ca:
                    1b:61:59:ea:c6:c4:ca:32:5e:c9:e9:bf:12:29:e6:
                    c6:c3:63:fe:a0:55:da:7a:f1:60:98:4d:26:ed:fa:
                    70:2d
                Exponent: 65537 (0x10001)
        X509v3 extensions:
            X509v3 Key Usage: 
                Digital Signature, Key Encipherment
            X509v3 Basic Constraints: 
                CA:FALSE
            Netscape Cert Type: 
                SSL Server
            Netscape Comment: 
                OpenSSL Generated Server Certificate
            X509v3 Subject Key Identifier: 
                53:3F:ED:5D:09:07:B3:65:7B:AB:45:C9:24:5B:09:77:80:0A:96:ED
            X509v3 Authority Key Identifier: 
                keyid:F4:A7:C0:CC:91:46:AF:64:F3:91:F2:27:F8:C8:B2:6F:8A:87:32:73
                DirName:/C=DE/ST=Hessen/O=privacyidea/CN=CA001
                serial:FB:C8:EB:AC:83:CD:12:07

            X509v3 Extended Key Usage: 
                TLS Web Server Authentication
    Signature Algorithm: sha1WithRSAEncryption
         36:a0:0d:b3:dd:2f:e2:ee:f5:f5:4c:3c:23:22:8e:1f:e0:e0:
         29:42:ff:d5:70:f5:84:1f:0f:4c:b1:e3:04:8d:47:ba:f8:1d:
         1a:96:86:69:69:63:be:9f:e8:29:51:82:0b:a8:e0:da:5f:7c:
         db:a7:08:cf:70:9d:60:9e:d2:97:a3:3e:af:f4:7b:2d:f6:0e:
         c3:1e:c1:3d:89:26:03:b1:d5:b3:6e:6a:c6:67:4f:fd:76:74:
         36:2f:5a:0e:7b:38:5e:8d:ae:ef:a1:6d:ae:34:85:77:2f:9e:
         50:cd:a2:b5:a9:f0:c0:99:c1:01:57:3f:1c:cf:a2:d5:2c:15:
         62:5c:cd:61:a4:36:6d:4c:45:81:08:d0:c9:65:d0:b8:f8:9a:
         8e:32:c1:53:e4:d2:c8:af:06:14:57:76:68:2e:2e:cf:5d:d7:
         37:2c:69:ff:d5:9a:c1:c7:c0:1d:79:51:44:aa:ce:db:87:35:
         45:4f:ef:56:99:57:7b:ba:b5:ca:55:31:73:31:b9:c2:02:7e:
         a9:4a:fa:8a:36:b0:39:ac:07:b8:0c:c7:17:8b:2d:54:df:68:
         81:a8:da:42:c2:34:3d:a4:31:5a:78:28:12:95:fe:b7:22:4f:
         bb:49:c3:91:18:9b:45:5a:70:28:e7:cf:ef:c3:13:b7:ba:77:
         2b:27:8b:7d
-----BEGIN CERTIFICATE-----
MIIEJjCCAw6gAwIBAgIEEAAAzTANBgkqhkiG9w0BAQUFADBEMQswCQYDVQQGEwJE
RTEPMA0GA1UECAwGSGVzc2VuMRQwEgYDVQQKDAtwcml2YWN5aWRlYTEOMAwGA1UE
AwwFQ0EwMDEwHhcNMTYwMjIyMTUzMDA3WhcNMTcwMjIxMTUzMDA3WjBUMQswCQYD
VQQGEwJERTEPMA0GA1UECAwGSGVzc2VuMRQwEgYDVQQKDAtwcml2YWN5aWRlYTEe
MBwGA1UEAwwVcmVxdWVzdGVyLmxvY2FsZG9tYWluMIIBIjANBgkqhkiG9w0BAQEF
AAOCAQ8AMIIBCgKCAQEAzb4UT/rOAT9CIhsdnK/dktJ/22y3PjlDQ2sTA/EF9Ad0
vHZpKAuvGY7X/OPNxljyyn8IbVP8BwJEJMa0NEyMBP4zDkDiILoCc1r39U9jbszG
tt9UHTc5fVE2Jl+93D+oi2uirrad1iHn30G4eigqaEjKqC3t4elGXlpybbSEOIeR
/ZQRCyiExsIvKvsB+TZ6CXXRM4g8c0FbyL+UiXCh8MC5LlBTHrEXZGn0LYHgqQ0O
Mum6VYqF8RtvSXm0f4jDDT5UiJs9HziMBPPuamMr9cbbtIOqxHhBOn1L4cg+ccob
YVnqxsTKMl7J6b8SKebGw2P+oFXaevFgmE0m7fpwLQIDAQABo4IBDjCCAQowCwYD
VR0PBAQDAgWgMAkGA1UdEwQCMAAwEQYJYIZIAYb4QgEBBAQDAgZAMDMGCWCGSAGG
+EIBDQQmFiRPcGVuU1NMIEdlbmVyYXRlZCBTZXJ2ZXIgQ2VydGlmaWNhdGUwHQYD
VR0OBBYEFFM/7V0JB7Nle6tFySRbCXeACpbtMHQGA1UdIwRtMGuAFPSnwMyRRq9k
85HyJ/jIsm+KhzJzoUikRjBEMQswCQYDVQQGEwJERTEPMA0GA1UECAwGSGVzc2Vu
MRQwEgYDVQQKDAtwcml2YWN5aWRlYTEOMAwGA1UEAwwFQ0EwMDGCCQD7yOusg80S
BzATBgNVHSUEDDAKBggrBgEFBQcDATANBgkqhkiG9w0BAQUFAAOCAQEANqANs90v
4u719Uw8IyKOH+DgKUL/1XD1hB8PTLHjBI1HuvgdGpaGaWljvp/oKVGCC6jg2l98
26cIz3CdYJ7Sl6M+r/R7LfYOwx7BPYkmA7HVs25qxmdP/XZ0Ni9aDns4Xo2u76Ft
rjSFdy+eUM2itanwwJnBAVc/HM+i1SwVYlzNYaQ2bUxFgQjQyWXQuPiajjLBU+TS
yK8GFFd2aC4uz13XNyxp/9WawcfAHXlRRKrO24c1RU/vVplXe7q1ylUxczG5wgJ+
qUr6ijawOawHuAzHF4stVN9ogajaQsI0PaQxWngoEpX+tyJPu0nDkRibRVpwKOfP
78MTt7p3KyeLfQ==
-----END CERTIFICATE-----
