Certificate:
    Data:
        Version: 3 (0x2)
        Serial Number: 268435656 (0x100000c8)
    Signature Algorithm: sha1WithRSAEncryption
        Issuer: C=DE, ST=Hessen, O=privacyidea, CN=CA001
        Validity
            Not Before: Feb 23 20:01:16 2016 GMT
            Not After : Feb 22 20:01:16 2017 GMT
        Subject: CN=selfservice,CN=user,O=realm1/emailAddress=meine
        Subject Public Key Info:
            Public Key Algorithm: rsaEncryption
                Public-Key: (2048 bit)
                Modulus:
                    00:cf:3c:d4:33:0e:12:c4:e6:da:cd:b6:56:a1:1c:
                    26:bb:26:1c:8a:4a:73:a8:58:8a:b6:1e:b3:8b:99:
                    d2:1d:07:c2:92:89:79:c0:69:d8:c8:df:28:61:98:
                    1e:b3:fe:ae:2b:bd:78:a9:f7:6e:47:dc:a3:a0:16:
                    8c:85:02:c1:4e:92:fd:72:6e:f0:c8:03:29:9b:b8:
                    00:6e:c0:83:95:c8:34:20:36:9c:b3:e5:e4:e6:76:
                    73:a3:1a:ad:40:96:e0:53:54:00:ec:76:79:9a:c6:
                    0d:7e:b6:bd:29:ec:83:f3:cb:89:a4:cb:6c:00:ba:
                    0c:c5:78:0f:ff:69:b8:94:f4:04:70:43:3f:d8:9e:
                    d7:a7:fb:5d:ce:75:8e:da:e7:c4:07:b1:9d:de:6f:
                    88:4b:b6:4d:9a:cf:f9:bc:fa:9f:cd:32:6d:f6:3a:
                    0b:0d:23:42:78:ec:97:42:bf:0e:4d:60:56:e1:d3:
                    02:f2:19:cb:84:57:90:e5:70:a1:a2:83:35:86:e2:
                    da:86:9f:f9:8a:c4:79:b3:52:28:da:cb:bb:34:ca:
                    d3:da:91:4a:cf:8d:76:a2:b2:6b:9b:f9:96:fd:09:
                    2a:da:11:23:4d:f0:cb:d6:b2:b1:0e:12:6c:9a:19:
                    65:98:87:ca:e4:ee:24:ce:44:ac:90:8f:9d:1b:c5:
                    2a:9d
                Exponent: 65537 (0x10001)
        X509v3 extensions:
            X509v3 Key Usage: 
                Digital Signature, Key Encipherment
            X509v3 Basic Constraints: 
                CA:FALSE
            Netscape Cert Type: 
                SSL Server
            Netscape Comment: 
                OpenSSL Generated Server Certificate
            X509v3 Subject Key Identifier: 
                4D:07:90:AD:FF:1D:0D:E7:1A:DD:D6:2E:FA:BA:34:CB:AA:1F:24:C6
            X509v3 Authority Key Identifier: 
                keyid:F4:A7:C0:CC:91:46:AF:64:F3:91:F2:27:F8:C8:B2:6F:8A:87:32:73
                DirName:/C=DE/ST=Hessen/O=privacyidea/CN=CA001
                serial:FB:C8:EB:AC:83:CD:12:07

            X509v3 Extended Key Usage: 
                TLS Web Server Authentication
    Signature Algorithm: sha1WithRSAEncryption
         61:b8:84:60:40:a3:1c:2f:6d:c1:2c:b2:28:a4:97:31:d3:08:
         d8:28:0f:f1:21:55:00:2a:d6:6c:80:dd:c4:ea:e2:db:16:5a:
         97:60:a5:ac:49:85:cd:90:51:b8:43:79:c1:7a:f1:83:fa:bd:
         6e:62:e7:91:68:14:5a:5d:e7:f9:d0:85:1e:a3:72:de:2c:88:
         82:5e:4f:e4:57:c1:a2:e2:05:9c:b8:1d:49:fd:4a:de:3b:5b:
         e2:93:28:7a:06:42:16:c6:1f:39:c7:7b:58:ee:f1:7f:ed:0c:
         2e:56:d5:20:69:3c:a4:05:cb:09:af:4f:2a:ea:d4:36:58:fd:
         d9:41:4c:e2:a3:42:b9:ed:ff:29:41:e6:90:20:e0:86:84:21:
         19:be:03:51:5f:21:3e:77:b5:d9:39:31:85:8b:a4:70:86:fb:
         9e:a1:e2:ec:be:0c:69:38:32:89:94:c4:9d:dd:1b:65:8e:4e:
         05:30:fc:b3:8a:59:58:37:1e:6c:14:29:80:4b:d8:6d:cb:ec:
         71:49:19:b6:41:c8:11:f9:c3:3b:5d:9d:47:61:58:37:b9:3f:
         ee:d7:a0:d6:ac:3c:da:89:0c:90:34:f4:9f:87:e9:f3:e8:34:
         b8:0e:e5:a3:1d:6f:4d:f8:b1:d8:49:9f:2a:52:64:34:f7:fe:
         45:cb:ed:ed
-----BEGIN CERTIFICATE-----
MIIEDzCCAvegAwIBAgIEEAAAyDANBgkqhkiG9w0BAQUFADBEMQswCQYDVQQGEwJE
RTEPMA0GA1UECAwGSGVzc2VuMRQwEgYDVQQKDAtwcml2YWN5aWRlYTEOMAwGA1UE
AwwFQ0EwMDEwHhcNMTYwMjIzMjAwMTE2WhcNMTcwMjIyMjAwMTE2WjA9MSUwIwYD
VQQDExxzZWxmc2VydmljZSxDTj11c2VyLE89cmVhbG0xMRQwEgYJKoZIhvcNAQkB
FgVtZWluZTCCASIwDQYJKoZIhvcNAQEBBQADggEPADCCAQoCggEBAM881DMOEsTm
2s22VqEcJrsmHIpKc6hYirYes4uZ0h0HwpKJecBp2MjfKGGYHrP+riu9eKn3bkfc
o6AWjIUCwU6S/XJu8MgDKZu4AG7Ag5XINCA2nLPl5OZ2c6MarUCW4FNUAOx2eZrG
DX62vSnsg/PLiaTLbAC6DMV4D/9puJT0BHBDP9ie16f7Xc51jtrnxAexnd5viEu2
TZrP+bz6n80ybfY6Cw0jQnjsl0K/Dk1gVuHTAvIZy4RXkOVwoaKDNYbi2oaf+YrE
ebNSKNrLuzTK09qRSs+NdqKya5v5lv0JKtoRI03wy9aysQ4SbJoZZZiHyuTuJM5E
rJCPnRvFKp0CAwEAAaOCAQ4wggEKMAsGA1UdDwQEAwIFoDAJBgNVHRMEAjAAMBEG
CWCGSAGG+EIBAQQEAwIGQDAzBglghkgBhvhCAQ0EJhYkT3BlblNTTCBHZW5lcmF0
ZWQgU2VydmVyIENlcnRpZmljYXRlMB0GA1UdDgQWBBRNB5Ct/x0N5xrd1i76ujTL
qh8kxjB0BgNVHSMEbTBrgBT0p8DMkUavZPOR8if4yLJviocyc6FIpEYwRDELMAkG
A1UEBhMCREUxDzANBgNVBAgMBkhlc3NlbjEUMBIGA1UECgwLcHJpdmFjeWlkZWEx
DjAMBgNVBAMMBUNBMDAxggkA+8jrrIPNEgcwEwYDVR0lBAwwCgYIKwYBBQUHAwEw
DQYJKoZIhvcNAQEFBQADggEBAGG4hGBAoxwvbcEssiiklzHTCNgoD/EhVQAq1myA
3cTq4tsWWpdgpaxJhc2QUbhDecF68YP6vW5i55FoFFpd5/nQhR6jct4siIJeT+RX
waLiBZy4HUn9St47W+KTKHoGQhbGHznHe1ju8X/tDC5W1SBpPKQFywmvTyrq1DZY
/dlBTOKjQrnt/ylB5pAg4IaEIRm+A1FfIT53tdk5MYWLpHCG+56h4uy+DGk4MomU
xJ3dG2WOTgUw/LOKWVg3HmwUKYBL2G3L7HFJGbZByBH5wztdnUdhWDe5P+7XoNas
PNqJDJA09J+H6fPoNLgO5aMdb034sdhJnypSZDT3/kXL7e0=
-----END CERTIFICATE-----
