Certificate:
    Data:
        Version: 3 (0x2)
        Serial Number: 268435658 (0x100000ca)
    Signature Algorithm: sha1WithRSAEncryption
        Issuer: C=DE, ST=Hessen, O=privacyidea, CN=CA001
        Validity
            Not Before: Feb 22 15:20:04 2016 GMT
            Not After : Feb 21 15:20:04 2017 GMT
        Subject: C=DE, ST=Hessen, O=privacyidea, CN=usercert
        Subject Public Key Info:
            Public Key Algorithm: rsaEncryption
                Public-Key: (2048 bit)
                Modulus:
                    00:dc:2f:d1:5f:29:97:d4:7c:c3:53:c8:30:bd:4b:
                    67:70:2c:24:6b:b8:5e:eb:21:7a:48:12:56:7c:81:
                    5c:48:75:b6:68:eb:f6:f2:98:4e:50:51:d1:7f:6c:
                    73:f3:0a:a7:ae:be:48:5e:e5:d6:e1:d9:2a:7c:32:
                    6e:4e:fd:08:f6:5a:54:49:23:73:c3:b9:07:18:d1:
                    ef:b3:ac:f8:8a:dc:94:96:a4:90:3a:8e:74:df:e6:
                    0d:37:1b:bd:5b:b7:25:1a:56:39:da:6f:91:aa:5e:
                    1c:74:f3:f9:7c:14:01:83:12:65:76:c7:bb:fe:36:
                    5b:95:e9:72:65:83:ed:3e:98:30:71:fa:87:dd:a3:
                    36:5a:30:03:2e:26:e0:61:d1:bf:02:3f:b6:06:1f:
                    4a:89:28:1c:5c:a2:ff:4e:be:94:e6:8c:e0:da:82:
                    f1:9d:29:32:48:30:73:b4:04:f6:42:1e:be:f7:e2:
                    32:32:27:3c:9d:89:2f:70:3e:85:9a:6f:5c:c5:09:
                    c0:8c:32:2f:72:22:c9:d2:95:1f:b6:ac:72:60:72:
                    b7:82:4d:6b:ce:5b:e3:00:d0:d2:2f:58:c6:e0:10:
                    e5:51:ca:4d:3b:2e:e6:7e:ab:84:d6:56:f1:93:35:
                    a0:93:64:26:81:75:2f:91:b5:16:06:38:0b:db:cc:
                    2d:07
                Exponent: 65537 (0x10001)
        X509v3 extensions:
            X509v3 Key Usage: 
                Digital Signature, Key Encipherment
            X509v3 Basic Constraints: 
                CA:FALSE
            Netscape Cert Type: 
                SSL Server
            Netscape Comment: 
                OpenSSL Generated Server Certificate
            X509v3 Subject Key Identifier: 
                FC:14:D1:F0:4B:8D:00:90:F2:F5:B8:71:9E:4E:97:C3:92:54:AD:0B
            X509v3 Authority Key Identifier: 
                keyid:F4:A7:C0:CC:91:46:AF:64:F3:91:F2:27:F8:C8:B2:6F:8A:87:32:73
                DirName:/C=DE/ST=Hessen/O=privacyidea/CN=CA001
                serial:FB:C8:EB:AC:83:CD:12:07

            X509v3 Extended Key Usage: 
                TLS Web Server Authentication
    Signature Algorithm: sha1WithRSAEncryption
         7a:38:97:ed:5f:90:c6:b1:37:b5:93:a4:57:02:c6:b3:38:fb:
         3d:fb:4b:18:58:f8:59:9a:7b:90:11:8a:b6:08:8c:ca:37:1c:
         ba:57:ce:a6:78:66:d5:9f:f7:93:04:68:0c:52:e4:56:a6:1a:
         8f:71:0e:c6:b3:5b:90:6b:1f:ee:50:4e:9e:d0:b4:82:d8:ae:
         ab:7d:7e:fe:50:3a:08:b2:76:63:ef:4e:e5:69:6b:33:63:7d:
         2a:ae:14:df:03:a7:ef:37:f7:0f:23:b1:54:c6:31:7a:6c:a9:
         33:a1:cb:39:b4:3e:13:2a:b0:4c:ee:ff:42:fb:ac:0c:49:be:
         dc:eb:4b:f7:5c:3d:ea:88:b1:b2:aa:27:84:b4:03:11:67:40:
         4e:30:64:e1:1f:cb:db:62:d2:43:64:f3:bd:2a:59:73:bc:ff:
         ea:95:df:75:56:89:a5:8d:bd:a7:c4:2c:b7:5c:35:a2:2d:4b:
         df:84:85:52:fa:eb:56:0d:13:e4:4c:4f:a3:0e:91:cd:e3:5a:
         a0:25:25:61:13:47:93:a0:79:9a:70:84:f8:84:3c:f8:9d:cf:
         3e:52:c9:7d:18:31:98:d2:29:98:f3:d0:7b:72:27:13:07:a2:
         5c:97:6f:24:b3:91:20:d8:34:55:da:85:4e:bd:94:65:b1:d8:
         a7:60:ad:e9
-----BEGIN CERTIFICATE-----
MIIEGTCCAwGgAwIBAgIEEAAAyjANBgkqhkiG9w0BAQUFADBEMQswCQYDVQQGEwJE
RTEPMA0GA1UECAwGSGVzc2VuMRQwEgYDVQQKDAtwcml2YWN5aWRlYTEOMAwGA1UE
AwwFQ0EwMDEwHhcNMTYwMjIyMTUyMDA0WhcNMTcwMjIxMTUyMDA0WjBHMQswCQYD
VQQGEwJERTEPMA0GA1UECAwGSGVzc2VuMRQwEgYDVQQKDAtwcml2YWN5aWRlYTER
MA8GA1UEAwwIdXNlcmNlcnQwggEiMA0GCSqGSIb3DQEBAQUAA4IBDwAwggEKAoIB
AQDcL9FfKZfUfMNTyDC9S2dwLCRruF7rIXpIElZ8gVxIdbZo6/bymE5QUdF/bHPz
Cqeuvkhe5dbh2Sp8Mm5O/Qj2WlRJI3PDuQcY0e+zrPiK3JSWpJA6jnTf5g03G71b
tyUaVjnab5GqXhx08/l8FAGDEmV2x7v+NluV6XJlg+0+mDBx+ofdozZaMAMuJuBh
0b8CP7YGH0qJKBxcov9OvpTmjODagvGdKTJIMHO0BPZCHr734jIyJzydiS9wPoWa
b1zFCcCMMi9yIsnSlR+2rHJgcreCTWvOW+MA0NIvWMbgEOVRyk07LuZ+q4TWVvGT
NaCTZCaBdS+RtRYGOAvbzC0HAgMBAAGjggEOMIIBCjALBgNVHQ8EBAMCBaAwCQYD
VR0TBAIwADARBglghkgBhvhCAQEEBAMCBkAwMwYJYIZIAYb4QgENBCYWJE9wZW5T
U0wgR2VuZXJhdGVkIFNlcnZlciBDZXJ0aWZpY2F0ZTAdBgNVHQ4EFgQU/BTR8EuN
AJDy9bhxnk6Xw5JUrQswdAYDVR0jBG0wa4AU9KfAzJFGr2TzkfIn+Miyb4qHMnOh
SKRGMEQxCzAJBgNVBAYTAkRFMQ8wDQYDVQQIDAZIZXNzZW4xFDASBgNVBAoMC3By
aXZhY3lpZGVhMQ4wDAYDVQQDDAVDQTAwMYIJAPvI66yDzRIHMBMGA1UdJQQMMAoG
CCsGAQUFBwMBMA0GCSqGSIb3DQEBBQUAA4IBAQB6OJftX5DGsTe1k6RXAsazOPs9
+0sYWPhZmnuQEYq2CIzKNxy6V86meGbVn/eTBGgMUuRWphqPcQ7Gs1uQax/uUE6e
0LSC2K6rfX7+UDoIsnZj707laWszY30qrhTfA6fvN/cPI7FUxjF6bKkzocs5tD4T
KrBM7v9C+6wMSb7c60v3XD3qiLGyqieEtAMRZ0BOMGThH8vbYtJDZPO9KllzvP/q
ld91Vomljb2nxCy3XDWiLUvfhIVS+utWDRPkTE+jDpHN41qgJSVhE0eToHmacIT4
hDz4nc8+Usl9GDGY0imY89B7cicTB6Jcl28ks5Eg2DRV2oVOvZRlsdinYK3p
-----END CERTIFICATE-----
