Certificate:
    Data:
        Version: 3 (0x2)
        Serial Number: 268435659 (0x100000cb)
    Signature Algorithm: sha1WithRSAEncryption
        Issuer: C=DE, ST=Hessen, O=privacyidea, CN=CA001
        Validity
            Not Before: Feb 22 15:20:04 2016 GMT
            Not After : Feb 21 15:20:04 2017 GMT
        Subject: CN=Steve Test/emailAddress=steve@openssl.org
        Subject Public Key Info:
            Public Key Algorithm: rsaEncryption
                Public-Key: (2048 bit)
                Modulus:
                    00:d2:81:89:20:51:48:0f:73:f4:11:32:24:d5:1f:
                    1c:fd:5c:f5:b6:e6:c5:f0:52:81:dc:d2:af:66:4a:
                    7c:93:31:61:5c:af:d1:6d:06:70:03:60:7c:72:0c:
                    88:dd:49:cd:9e:02:6c:d2:5a:d7:53:0f:f3:da:be:
                    69:64:b5:0f:0c:00:e3:b3:50:47:a3:b3:9b:ba:13:
                    50:d6:58:5a:4b:ab:39:e0:11:ca:0a:27:67:03:78:
                    22:66:6d:92:1e:1b:5c:49:ae:e6:6b:d1:8e:3b:9d:
                    06:d3:c6:ac:4d:53:43:10:ab:e8:96:c1:87:82:97:
                    99:8f:20:d3:99:12:37:31:84:e1:8a:ff:29:03:5f:
                    22:90:3e:7f:9b:e0:20:c1:ad:dc:ae:4c:39:1a:31:
                    96:17:02:8c:b2:d9:b4:0d:20:12:9b:7d:86:54:fd:
                    33:fd:c1:2a:62:46:f8:60:96:cf:6e:01:6f:22:df:
                    13:47:e7:97:ec:05:72:23:a3:62:f8:fa:ef:ac:9c:
                    72:f0:37:cb:2f:37:cf:90:a8:27:51:86:c6:d7:78:
                    08:8f:7e:25:a2:15:70:a2:fb:1c:b6:15:5e:a0:97:
                    8b:81:4c:09:28:8a:27:3b:94:bc:71:db:5b:71:37:
                    9a:2b:16:e0:6f:b5:c9:f5:4b:4f:20:ba:65:cf:af:
                    ad:ad
                Exponent: 65537 (0x10001)
        X509v3 extensions:
            X509v3 Key Usage: 
                Digital Signature, Key Encipherment
            X509v3 Basic Constraints: 
                CA:FALSE
            Netscape Cert Type: 
                SSL Server
            Netscape Comment: 
                OpenSSL Generated Server Certificate
            X509v3 Subject Key Identifier: 
                E5:25:6D:3E:AF:0D:DD:3F:4C:F2:45:19:39:D5:14:DB:7E:9C:C0:AD
            X509v3 Authority Key Identifier: 
                keyid:F4:A7:C0:CC:91:46:AF:64:F3:91:F2:27:F8:C8:B2:6F:8A:87:32:73
                DirName:/C=DE/ST=Hessen/O=privacyidea/CN=CA001
                serial:FB:C8:EB:AC:83:CD:12:07

            X509v3 Extended Key Usage: 
                TLS Web Server Authentication
    Signature Algorithm: sha1WithRSAEncryption
         0c:96:d3:56:4e:54:c0:59:96:17:0b:c0:8f:93:47:94:af:08:
         25:ef:4c:ba:12:2b:03:f9:3d:6b:49:0b:93:f8:0a:ce:3e:b5:
         66:f4:f0:3c:ee:70:ae:df:5a:cb:65:5a:53:04:13:6a:76:f3:
         81:c9:d9:c8:5e:b1:0a:25:a3:cc:17:dc:13:5c:fb:0b:57:66:
         59:17:99:fe:8e:df:4b:2d:86:a0:8d:46:8d:74:54:82:69:be:
         83:d2:e0:c9:83:d4:76:f7:3a:61:5f:4b:9f:a5:68:d2:6e:4b:
         b5:51:e3:96:0f:a3:a2:ce:89:b3:06:b6:3e:1e:d3:c7:41:da:
         29:40:17:e4:f3:f5:eb:66:ff:cb:e1:0d:51:60:83:7b:12:dc:
         0b:05:2b:77:10:d9:68:41:fe:33:e1:02:10:4f:b7:be:f6:1e:
         52:5a:d2:3f:55:fb:33:c8:fb:75:e6:89:64:b3:c0:13:9d:7f:
         3e:d7:ce:a2:27:f1:d3:e9:b7:a5:b5:e8:c2:8a:ec:a3:66:01:
         a2:a1:e4:66:12:de:d4:4b:5d:79:e8:ae:dc:81:ae:a3:58:77:
         16:a5:49:2b:e4:31:17:49:61:32:af:db:8f:29:ca:6f:f8:74:
         9a:2e:27:43:47:a2:f0:e8:9a:c2:12:55:bb:e0:aa:12:98:44:
         e7:eb:b0:c1
-----BEGIN CERTIFICATE-----
MIIECTCCAvGgAwIBAgIEEAAAyzANBgkqhkiG9w0BAQUFADBEMQswCQYDVQQGEwJE
RTEPMA0GA1UECAwGSGVzc2VuMRQwEgYDVQQKDAtwcml2YWN5aWRlYTEOMAwGA1UE
AwwFQ0EwMDEwHhcNMTYwMjIyMTUyMDA0WhcNMTcwMjIxMTUyMDA0WjA3MRMwEQYD
VQQDEwpTdGV2ZSBUZXN0MSAwHgYJKoZIhvcNAQkBFhFzdGV2ZUBvcGVuc3NsLm9y
ZzCCASIwDQYJKoZIhvcNAQEBBQADggEPADCCAQoCggEBANKBiSBRSA9z9BEyJNUf
HP1c9bbmxfBSgdzSr2ZKfJMxYVyv0W0GcANgfHIMiN1JzZ4CbNJa11MP89q+aWS1
DwwA47NQR6Ozm7oTUNZYWkurOeARygonZwN4ImZtkh4bXEmu5mvRjjudBtPGrE1T
QxCr6JbBh4KXmY8g05kSNzGE4Yr/KQNfIpA+f5vgIMGt3K5MORoxlhcCjLLZtA0g
Ept9hlT9M/3BKmJG+GCWz24BbyLfE0fnl+wFciOjYvj676yccvA3yy83z5CoJ1GG
xtd4CI9+JaIVcKL7HLYVXqCXi4FMCSiKJzuUvHHbW3E3misW4G+1yfVLTyC6Zc+v
ra0CAwEAAaOCAQ4wggEKMAsGA1UdDwQEAwIFoDAJBgNVHRMEAjAAMBEGCWCGSAGG
+EIBAQQEAwIGQDAzBglghkgBhvhCAQ0EJhYkT3BlblNTTCBHZW5lcmF0ZWQgU2Vy
dmVyIENlcnRpZmljYXRlMB0GA1UdDgQWBBTlJW0+rw3dP0zyRRk51RTbfpzArTB0
BgNVHSMEbTBrgBT0p8DMkUavZPOR8if4yLJviocyc6FIpEYwRDELMAkGA1UEBhMC
REUxDzANBgNVBAgMBkhlc3NlbjEUMBIGA1UECgwLcHJpdmFjeWlkZWExDjAMBgNV
BAMMBUNBMDAxggkA+8jrrIPNEgcwEwYDVR0lBAwwCgYIKwYBBQUHAwEwDQYJKoZI
hvcNAQEFBQADggEBAAyW01ZOVMBZlhcLwI+TR5SvCCXvTLoSKwP5PWtJC5P4Cs4+
tWb08DzucK7fWstlWlMEE2p284HJ2chesQolo8wX3BNc+wtXZlkXmf6O30sthqCN
Ro10VIJpvoPS4MmD1Hb3OmFfS5+laNJuS7VR45YPo6LOibMGtj4e08dB2ilAF+Tz
9etm/8vhDVFgg3sS3AsFK3cQ2WhB/jPhAhBPt772HlJa0j9V+zPI+3XmiWSzwBOd
fz7XzqIn8dPpt6W16MKK7KNmAaKh5GYS3tRLXXnortyBrqNYdxalSSvkMRdJYTKv
248pym/4dJouJ0NHovDomsISVbvgqhKYROfrsME=
-----END CERTIFICATE-----
