Certificate:
    Data:
        Version: 3 (0x2)
        Serial Number: 268435654 (0x100000c6)
    Signature Algorithm: sha1WithRSAEncryption
        Issuer: C=DE, ST=Hessen, O=privacyidea, CN=CA001
        Validity
            Not Before: Feb 23 19:50:48 2016 GMT
            Not After : Feb 22 19:50:48 2017 GMT
        Subject: CN=Steve Test/emailAddress=steve@openssl.org
        Subject Public Key Info:
            Public Key Algorithm: rsaEncryption
                Public-Key: (2048 bit)
                Modulus:
                    00:d2:81:89:20:51:48:0f:73:f4:11:32:24:d5:1f:
                    1c:fd:5c:f5:b6:e6:c5:f0:52:81:dc:d2:af:66:4a:
                    7c:93:31:61:5c:af:d1:6d:06:70:03:60:7c:72:0c:
                    88:dd:49:cd:9e:02:6c:d2:5a:d7:53:0f:f3:da:be:
                    69:64:b5:0f:0c:00:e3:b3:50:47:a3:b3:9b:ba:13:
                    50:d6:58:5a:4b:ab:39:e0:11:ca:0a:27:67:03:78:
                    22:66:6d:92:1e:1b:5c:49:ae:e6:6b:d1:8e:3b:9d:
                    06:d3:c6:ac:4d:53:43:10:ab:e8:96:c1:87:82:97:
                    99:8f:20:d3:99:12:37:31:84:e1:8a:ff:29:03:5f:
                    22:90:3e:7f:9b:e0:20:c1:ad:dc:ae:4c:39:1a:31:
                    96:17:02:8c:b2:d9:b4:0d:20:12:9b:7d:86:54:fd:
                    33:fd:c1:2a:62:46:f8:60:96:cf:6e:01:6f:22:df:
                    13:47:e7:97:ec:05:72:23:a3:62:f8:fa:ef:ac:9c:
                    72:f0:37:cb:2f:37:cf:90:a8:27:51:86:c6:d7:78:
                    08:8f:7e:25:a2:15:70:a2:fb:1c:b6:15:5e:a0:97:
                    8b:81:4c:09:28:8a:27:3b:94:bc:71:db:5b:71:37:
                    9a:2b:16:e0:6f:b5:c9:f5:4b:4f:20:ba:65:cf:af:
                    ad:ad
                Exponent: 65537 (0x10001)
        X509v3 extensions:
            X509v3 Key Usage: 
                Digital Signature, Key Encipherment
            X509v3 Basic Constraints: 
                CA:FALSE
            Netscape Cert Type: 
                SSL Server
            Netscape Comment: 
                OpenSSL Generated Server Certificate
            X509v3 Subject Key Identifier: 
                E5:25:6D:3E:AF:0D:DD:3F:4C:F2:45:19:39:D5:14:DB:7E:9C:C0:AD
            X509v3 Authority Key Identifier: 
                keyid:F4:A7:C0:CC:91:46:AF:64:F3:91:F2:27:F8:C8:B2:6F:8A:87:32:73
                DirName:/C=DE/ST=Hessen/O=privacyidea/CN=CA001
                serial:FB:C8:EB:AC:83:CD:12:07

            X509v3 Extended Key Usage: 
                TLS Web Server Authentication
    Signature Algorithm: sha1WithRSAEncryption
         28:44:1e:be:9e:66:05:f9:e3:46:6a:7a:aa:cc:90:d0:9f:06:
         7e:20:9b:a0:fb:e5:fd:04:58:bf:d9:e4:f7:0f:a0:79:06:87:
         3a:99:a6:d3:f2:4d:76:e3:f0:28:c4:47:4b:da:07:01:72:0f:
         e7:9a:d7:76:cf:d4:26:8b:52:dd:59:46:ed:36:9b:2b:36:df:
         70:db:c4:1e:fe:53:c5:ae:58:6e:f2:1b:fb:88:63:ee:d4:57:
         49:d4:82:73:cd:ae:2d:16:13:11:c5:78:c5:66:9f:b1:ad:0a:
         c7:3b:a6:3d:e8:81:31:b4:68:d7:74:a1:9e:26:88:ad:bd:dc:
         37:a6:30:4e:47:11:7a:37:24:7a:0b:0b:2b:12:be:e9:1c:93:
         3c:ca:47:a0:ad:c2:32:52:75:7f:f6:60:54:e0:65:f8:ab:8f:
         28:6c:d1:26:e0:26:09:4a:f2:9d:fb:12:fa:d8:f0:12:c2:73:
         8c:b1:aa:cb:ae:e8:2d:81:7a:24:09:37:24:90:c5:e3:7f:a4:
         83:1e:8c:ec:1f:f9:62:54:ac:88:2b:df:3f:c6:ae:fc:64:5f:
         c8:1c:01:bf:7f:96:44:1e:48:2e:6d:8e:34:ac:82:0b:ab:65:
         98:a8:29:8c:1e:b7:9e:54:7e:75:56:2e:fc:c0:0e:7f:d5:bb:
         78:8c:fb:27
-----BEGIN CERTIFICATE-----
MIIECTCCAvGgAwIBAgIEEAAAxjANBgkqhkiG9w0BAQUFADBEMQswCQYDVQQGEwJE
RTEPMA0GA1UECAwGSGVzc2VuMRQwEgYDVQQKDAtwcml2YWN5aWRlYTEOMAwGA1UE
AwwFQ0EwMDEwHhcNMTYwMjIzMTk1MDQ4WhcNMTcwMjIyMTk1MDQ4WjA3MRMwEQYD
VQQDEwpTdGV2ZSBUZXN0MSAwHgYJKoZIhvcNAQkBFhFzdGV2ZUBvcGVuc3NsLm9y
ZzCCASIwDQYJKoZIhvcNAQEBBQADggEPADCCAQoCggEBANKBiSBRSA9z9BEyJNUf
HP1c9bbmxfBSgdzSr2ZKfJMxYVyv0W0GcANgfHIMiN1JzZ4CbNJa11MP89q+aWS1
DwwA47NQR6Ozm7oTUNZYWkurOeARygonZwN4ImZtkh4bXEmu5mvRjjudBtPGrE1T
QxCr6JbBh4KXmY8g05kSNzGE4Yr/KQNfIpA+f5vgIMGt3K5MORoxlhcCjLLZtA0g
Ept9hlT9M/3BKmJG+GCWz24BbyLfE0fnl+wFciOjYvj676yccvA3yy83z5CoJ1GG
xtd4CI9+JaIVcKL7HLYVXqCXi4FMCSiKJzuUvHHbW3E3misW4G+1yfVLTyC6Zc+v
ra0CAwEAAaOCAQ4wggEKMAsGA1UdDwQEAwIFoDAJBgNVHRMEAjAAMBEGCWCGSAGG
+EIBAQQEAwIGQDAzBglghkgBhvhCAQ0EJhYkT3BlblNTTCBHZW5lcmF0ZWQgU2Vy
dmVyIENlcnRpZmljYXRlMB0GA1UdDgQWBBTlJW0+rw3dP0zyRRk51RTbfpzArTB0
BgNVHSMEbTBrgBT0p8DMkUavZPOR8if4yLJviocyc6FIpEYwRDELMAkGA1UEBhMC
REUxDzANBgNVBAgMBkhlc3NlbjEUMBIGA1UECgwLcHJpdmFjeWlkZWExDjAMBgNV
BAMMBUNBMDAxggkA+8jrrIPNEgcwEwYDVR0lBAwwCgYIKwYBBQUHAwEwDQYJKoZI
hvcNAQEFBQADggEBAChEHr6eZgX540ZqeqrMkNCfBn4gm6D75f0EWL/Z5PcPoHkG
hzqZptPyTXbj8CjER0vaBwFyD+ea13bP1CaLUt1ZRu02mys233DbxB7+U8WuWG7y
G/uIY+7UV0nUgnPNri0WExHFeMVmn7GtCsc7pj3ogTG0aNd0oZ4miK293DemME5H
EXo3JHoLCysSvukckzzKR6CtwjJSdX/2YFTgZfirjyhs0SbgJglK8p37EvrY8BLC
c4yxqsuu6C2BeiQJNySQxeN/pIMejOwf+WJUrIgr3z/GrvxkX8gcAb9/lkQeSC5t
jjSsggurZZioKYwet55UfnVWLvzADn/Vu3iM+yc=
-----END CERTIFICATE-----
