Certificate:
    Data:
        Version: 3 (0x2)
        Serial Number: 268435651 (0x100000c3)
    Signature Algorithm: sha1WithRSAEncryption
        Issuer: C=DE, ST=Hessen, O=privacyidea, CN=CA001
        Validity
            Not Before: Feb 23 19:49:19 2016 GMT
            Not After : Feb 22 19:49:19 2017 GMT
        Subject: C=DE, ST=Hessen, O=privacyidea, CN=requester.localdomain
        Subject Public Key Info:
            Public Key Algorithm: rsaEncryption
                Public-Key: (2048 bit)
                Modulus:
                    00:cd:be:14:4f:fa:ce:01:3f:42:22:1b:1d:9c:af:
                    dd:92:d2:7f:db:6c:b7:3e:39:43:43:6b:13:03:f1:
                    05:f4:07:74:bc:76:69:28:0b:af:19:8e:d7:fc:e3:
                    cd:c6:58:f2:ca:7f:08:6d:53:fc:07:02:44:24:c6:
                    b4:34:4c:8c:04:fe:33:0e:40:e2:20:ba:02:73:5a:
                    f7:f5:4f:63:6e:cc:c6:b6:df:54:1d:37:39:7d:51:
                    36:26:5f:bd:dc:3f:a8:8b:6b:a2:ae:b6:9d:d6:21:
                    e7:df:41:b8:7a:28:2a:68:48:ca:a8:2d:ed:e1:e9:
                    46:5e:5a:72:6d:b4:84:38:87:91:fd:94:11:0b:28:
                    84:c6:c2:2f:2a:fb:01:f9:36:7a:09:75:d1:33:88:
                    3c:73:41:5b:c8:bf:94:89:70:a1:f0:c0:b9:2e:50:
                    53:1e:b1:17:64:69:f4:2d:81:e0:a9:0d:0e:32:e9:
                    ba:55:8a:85:f1:1b:6f:49:79:b4:7f:88:c3:0d:3e:
                    54:88:9b:3d:1f:38:8c:04:f3:ee:6a:63:2b:f5:c6:
                    db:b4:83:aa:c4:78:41:3a:7d:4b:e1:c8:3e:71:ca:
                    1b:61:59:ea:c6:c4:ca:32:5e:c9:e9:bf:12:29:e6:
                    c6:c3:63:fe:a0:55:da:7a:f1:60:98:4d:26:ed:fa:
                    70:2d
                Exponent: 65537 (0x10001)
        X509v3 extensions:
            X509v3 Key Usage: 
                Digital Signature, Key Encipherment
            X509v3 Basic Constraints: 
                CA:FALSE
            Netscape Cert Type: 
                SSL Server
            Netscape Comment: 
                OpenSSL Generated Server Certificate
            X509v3 Subject Key Identifier: 
                53:3F:ED:5D:09:07:B3:65:7B:AB:45:C9:24:5B:09:77:80:0A:96:ED
            X509v3 Authority Key Identifier: 
                keyid:F4:A7:C0:CC:91:46:AF:64:F3:91:F2:27:F8:C8:B2:6F:8A:87:32:73
                DirName:/C=DE/ST=Hessen/O=privacyidea/CN=CA001
                serial:FB:C8:EB:AC:83:CD:12:07

            X509v3 Extended Key Usage: 
                TLS Web Server Authentication
    Signature Algorithm: sha1WithRSAEncryption
         98:df:7b:98:21:36:57:b9:2c:c0:2a:31:1d:b7:d7:56:fd:6f:
         cf:5d:de:de:df:5b:48:0a:dc:8a:39:78:fe:dd:20:06:64:bb:
         45:55:bc:26:d4:c9:7d:14:17:10:dc:df:4e:8c:8a:fe:b7:b2:
         17:1f:51:1e:aa:9e:e7:bc:ce:41:5f:5c:c9:39:86:c2:73:ce:
         96:0b:ae:a2:94:6a:60:f6:38:11:67:6b:14:ca:4f:66:23:3c:
         3a:fb:fe:5b:bf:59:65:28:db:1e:3a:23:78:f9:61:8a:6a:f3:
         11:0b:be:0a:ec:99:f8:6a:be:dc:ad:9d:cb:37:bd:27:c8:86:
         f0:a6:af:2a:3a:41:3e:fe:fc:76:c7:08:19:65:bf:3a:70:72:
         d3:fe:0b:96:cd:03:e7:bc:74:a2:e9:5e:e5:8f:78:85:33:6a:
         64:7f:40:96:8b:05:06:3d:90:1e:fe:df:4a:bf:ff:15:f9:db:
         3f:b0:e8:9c:e6:a2:4e:15:71:b1:06:08:3e:79:55:d8:ad:a1:
         4e:77:77:db:7a:df:24:e2:fb:c6:43:49:dc:dc:5b:bb:f8:fa:
         78:08:f0:94:19:ff:40:87:30:a3:d3:c2:6e:a8:7d:ba:ac:40:
         6c:e5:c4:ad:99:a1:ac:6e:3c:12:26:ce:46:7d:73:bd:e3:29:
         83:78:e2:72
-----BEGIN CERTIFICATE-----
MIIEJjCCAw6gAwIBAgIEEAAAwzANBgkqhkiG9w0BAQUFADBEMQswCQYDVQQGEwJE
RTEPMA0GA1UECAwGSGVzc2VuMRQwEgYDVQQKDAtwcml2YWN5aWRlYTEOMAwGA1UE
AwwFQ0EwMDEwHhcNMTYwMjIzMTk0OTE5WhcNMTcwMjIyMTk0OTE5WjBUMQswCQYD
VQQGEwJERTEPMA0GA1UECAwGSGVzc2VuMRQwEgYDVQQKDAtwcml2YWN5aWRlYTEe
MBwGA1UEAwwVcmVxdWVzdGVyLmxvY2FsZG9tYWluMIIBIjANBgkqhkiG9w0BAQEF
AAOCAQ8AMIIBCgKCAQEAzb4UT/rOAT9CIhsdnK/dktJ/22y3PjlDQ2sTA/EF9Ad0
vHZpKAuvGY7X/OPNxljyyn8IbVP8BwJEJMa0NEyMBP4zDkDiILoCc1r39U9jbszG
tt9UHTc5fVE2Jl+93D+oi2uirrad1iHn30G4eigqaEjKqC3t4elGXlpybbSEOIeR
/ZQRCyiExsIvKvsB+TZ6CXXRM4g8c0FbyL+UiXCh8MC5LlBTHrEXZGn0LYHgqQ0O
Mum6VYqF8RtvSXm0f4jDDT5UiJs9HziMBPPuamMr9cbbtIOqxHhBOn1L4cg+ccob
YVnqxsTKMl7J6b8SKebGw2P+oFXaevFgmE0m7fpwLQIDAQABo4IBDjCCAQowCwYD
VR0PBAQDAgWgMAkGA1UdEwQCMAAwEQYJYIZIAYb4QgEBBAQDAgZAMDMGCWCGSAGG
+EIBDQQmFiRPcGVuU1NMIEdlbmVyYXRlZCBTZXJ2ZXIgQ2VydGlmaWNhdGUwHQYD
VR0OBBYEFFM/7V0JB7Nle6tFySRbCXeACpbtMHQGA1UdIwRtMGuAFPSnwMyRRq9k
85HyJ/jIsm+KhzJzoUikRjBEMQswCQYDVQQGEwJERTEPMA0GA1UECAwGSGVzc2Vu
MRQwEgYDVQQKDAtwcml2YWN5aWRlYTEOMAwGA1UEAwwFQ0EwMDGCCQD7yOusg80S
BzATBgNVHSUEDDAKBggrBgEFBQcDATANBgkqhkiG9w0BAQUFAAOCAQEAmN97mCE2
V7kswCoxHbfXVv1vz13e3t9bSArcijl4/t0gBmS7RVW8JtTJfRQXENzfToyK/rey
Fx9RHqqe57zOQV9cyTmGwnPOlguuopRqYPY4EWdrFMpPZiM8Ovv+W79ZZSjbHjoj
ePlhimrzEQu+CuyZ+Gq+3K2dyze9J8iG8KavKjpBPv78dscIGWW/OnBy0/4Lls0D
57x0oule5Y94hTNqZH9AlosFBj2QHv7fSr//FfnbP7DonOaiThVxsQYIPnlV2K2h
Tnd323rfJOL7xkNJ3Nxbu/j6eAjwlBn/QIcwo9PCbqh9uqxAbOXErZmhrG48EibO
Rn1zveMpg3jicg==
-----END CERTIFICATE-----
