Certificate:
    Data:
        Version: 3 (0x2)
        Serial Number: 268435655 (0x100000c7)
    Signature Algorithm: sha1WithRSAEncryption
        Issuer: C=DE, ST=Hessen, O=privacyidea, CN=CA001
        Validity
            Not Before: Feb 23 19:53:11 2016 GMT
            Not After : Feb 22 19:53:11 2017 GMT
        Subject: C=DE, ST=Hessen, O=privacyidea, CN=requester.localdomain
        Subject Public Key Info:
            Public Key Algorithm: rsaEncryption
                Public-Key: (2048 bit)
                Modulus:
                    00:cd:be:14:4f:fa:ce:01:3f:42:22:1b:1d:9c:af:
                    dd:92:d2:7f:db:6c:b7:3e:39:43:43:6b:13:03:f1:
                    05:f4:07:74:bc:76:69:28:0b:af:19:8e:d7:fc:e3:
                    cd:c6:58:f2:ca:7f:08:6d:53:fc:07:02:44:24:c6:
                    b4:34:4c:8c:04:fe:33:0e:40:e2:20:ba:02:73:5a:
                    f7:f5:4f:63:6e:cc:c6:b6:df:54:1d:37:39:7d:51:
                    36:26:5f:bd:dc:3f:a8:8b:6b:a2:ae:b6:9d:d6:21:
                    e7:df:41:b8:7a:28:2a:68:48:ca:a8:2d:ed:e1:e9:
                    46:5e:5a:72:6d:b4:84:38:87:91:fd:94:11:0b:28:
                    84:c6:c2:2f:2a:fb:01:f9:36:7a:09:75:d1:33:88:
                    3c:73:41:5b:c8:bf:94:89:70:a1:f0:c0:b9:2e:50:
                    53:1e:b1:17:64:69:f4:2d:81:e0:a9:0d:0e:32:e9:
                    ba:55:8a:85:f1:1b:6f:49:79:b4:7f:88:c3:0d:3e:
                    54:88:9b:3d:1f:38:8c:04:f3:ee:6a:63:2b:f5:c6:
                    db:b4:83:aa:c4:78:41:3a:7d:4b:e1:c8:3e:71:ca:
                    1b:61:59:ea:c6:c4:ca:32:5e:c9:e9:bf:12:29:e6:
                    c6:c3:63:fe:a0:55:da:7a:f1:60:98:4d:26:ed:fa:
                    70:2d
                Exponent: 65537 (0x10001)
        X509v3 extensions:
            X509v3 Key Usage: 
                Digital Signature, Key Encipherment
            X509v3 Basic Constraints: 
                CA:FALSE
            Netscape Cert Type: 
                SSL Server
            Netscape Comment: 
                OpenSSL Generated Server Certificate
            X509v3 Subject Key Identifier: 
                53:3F:ED:5D:09:07:B3:65:7B:AB:45:C9:24:5B:09:77:80:0A:96:ED
            X509v3 Authority Key Identifier: 
                keyid:F4:A7:C0:CC:91:46:AF:64:F3:91:F2:27:F8:C8:B2:6F:8A:87:32:73
                DirName:/C=DE/ST=Hessen/O=privacyidea/CN=CA001
                serial:FB:C8:EB:AC:83:CD:12:07

            X509v3 Extended Key Usage: 
                TLS Web Server Authentication
    Signature Algorithm: sha1WithRSAEncryption
         76:b7:37:b5:fb:e6:48:0a:00:81:81:2a:e2:bc:88:3a:45:36:
         f8:d9:e3:ad:de:00:83:f7:5a:d2:5a:70:98:a3:e1:73:09:72:
         71:0c:94:b8:62:1f:72:2d:19:2f:bb:2b:01:a8:a9:ee:85:fb:
         d0:49:87:58:4c:f4:43:ce:98:11:29:d0:3f:54:2d:5c:b1:ca:
         88:6a:9e:36:9c:b3:d8:a8:d7:ff:c0:cf:1e:15:00:2f:a5:27:
         f4:d1:e2:db:30:59:5a:96:61:31:63:a1:ee:4e:8c:51:98:44:
         8f:77:a4:09:ec:86:d9:b3:d7:6b:12:dc:27:c3:8d:c0:4a:77:
         a0:0a:4a:44:ee:b5:b4:3e:fe:b6:a7:2c:b5:94:26:1b:7f:f2:
         62:ae:dd:e5:02:dc:2b:40:8b:47:6e:1c:b3:27:cd:ca:ec:fb:
         7b:e2:7e:81:4f:96:f8:70:c9:0c:f5:be:0b:c4:8f:ad:44:7f:
         0c:79:a1:68:a0:7c:65:b3:dc:22:3a:0f:3c:1e:ee:93:f6:ca:
         19:79:73:a8:ab:1f:7c:c5:bc:86:11:af:57:fb:fa:92:02:ee:
         c6:de:ea:c8:5a:9b:38:b8:71:29:79:39:35:6d:ba:b4:5b:c1:
         86:af:9e:f4:29:41:69:71:18:1d:a3:67:89:12:c4:95:18:56:
         9e:76:47:19
-----BEGIN CERTIFICATE-----
MIIEJjCCAw6gAwIBAgIEEAAAxzANBgkqhkiG9w0BAQUFADBEMQswCQYDVQQGEwJE
RTEPMA0GA1UECAwGSGVzc2VuMRQwEgYDVQQKDAtwcml2YWN5aWRlYTEOMAwGA1UE
AwwFQ0EwMDEwHhcNMTYwMjIzMTk1MzExWhcNMTcwMjIyMTk1MzExWjBUMQswCQYD
VQQGEwJERTEPMA0GA1UECAwGSGVzc2VuMRQwEgYDVQQKDAtwcml2YWN5aWRlYTEe
MBwGA1UEAwwVcmVxdWVzdGVyLmxvY2FsZG9tYWluMIIBIjANBgkqhkiG9w0BAQEF
AAOCAQ8AMIIBCgKCAQEAzb4UT/rOAT9CIhsdnK/dktJ/22y3PjlDQ2sTA/EF9Ad0
vHZpKAuvGY7X/OPNxljyyn8IbVP8BwJEJMa0NEyMBP4zDkDiILoCc1r39U9jbszG
tt9UHTc5fVE2Jl+93D+oi2uirrad1iHn30G4eigqaEjKqC3t4elGXlpybbSEOIeR
/ZQRCyiExsIvKvsB+TZ6CXXRM4g8c0FbyL+UiXCh8MC5LlBTHrEXZGn0LYHgqQ0O
Mum6VYqF8RtvSXm0f4jDDT5UiJs9HziMBPPuamMr9cbbtIOqxHhBOn1L4cg+ccob
YVnqxsTKMl7J6b8SKebGw2P+oFXaevFgmE0m7fpwLQIDAQABo4IBDjCCAQowCwYD
VR0PBAQDAgWgMAkGA1UdEwQCMAAwEQYJYIZIAYb4QgEBBAQDAgZAMDMGCWCGSAGG
+EIBDQQmFiRPcGVuU1NMIEdlbmVyYXRlZCBTZXJ2ZXIgQ2VydGlmaWNhdGUwHQYD
VR0OBBYEFFM/7V0JB7Nle6tFySRbCXeACpbtMHQGA1UdIwRtMGuAFPSnwMyRRq9k
85HyJ/jIsm+KhzJzoUikRjBEMQswCQYDVQQGEwJERTEPMA0GA1UECAwGSGVzc2Vu
MRQwEgYDVQQKDAtwcml2YWN5aWRlYTEOMAwGA1UEAwwFQ0EwMDGCCQD7yOusg80S
BzATBgNVHSUEDDAKBggrBgEFBQcDATANBgkqhkiG9w0BAQUFAAOCAQEAdrc3tfvm
SAoAgYEq4ryIOkU2+Nnjrd4Ag/da0lpwmKPhcwlycQyUuGIfci0ZL7srAaip7oX7
0EmHWEz0Q86YESnQP1QtXLHKiGqeNpyz2KjX/8DPHhUAL6Un9NHi2zBZWpZhMWOh
7k6MUZhEj3ekCeyG2bPXaxLcJ8ONwEp3oApKRO61tD7+tqcstZQmG3/yYq7d5QLc
K0CLR24csyfNyuz7e+J+gU+W+HDJDPW+C8SPrUR/DHmhaKB8ZbPcIjoPPB7uk/bK
GXlzqKsffMW8hhGvV/v6kgLuxt7qyFqbOLhxKXk5NW26tFvBhq+e9ClBaXEYHaNn
iRLElRhWnnZHGQ==
-----END CERTIFICATE-----
