Certificate:
    Data:
        Version: 3 (0x2)
        Serial Number: 268435658 (0x100000ca)
    Signature Algorithm: sha1WithRSAEncryption
        Issuer: C=DE, ST=Hessen, O=privacyidea, CN=CA001
        Validity
            Not Before: Dec 29 10:11:30 2015 GMT
            Not After : Dec 28 10:11:30 2016 GMT
        Subject: C=DE, ST=Hessen, O=privacyidea, CN=requester.localdomain
        Subject Public Key Info:
            Public Key Algorithm: rsaEncryption
                Public-Key: (2048 bit)
                Modulus:
                    00:cd:be:14:4f:fa:ce:01:3f:42:22:1b:1d:9c:af:
                    dd:92:d2:7f:db:6c:b7:3e:39:43:43:6b:13:03:f1:
                    05:f4:07:74:bc:76:69:28:0b:af:19:8e:d7:fc:e3:
                    cd:c6:58:f2:ca:7f:08:6d:53:fc:07:02:44:24:c6:
                    b4:34:4c:8c:04:fe:33:0e:40:e2:20:ba:02:73:5a:
                    f7:f5:4f:63:6e:cc:c6:b6:df:54:1d:37:39:7d:51:
                    36:26:5f:bd:dc:3f:a8:8b:6b:a2:ae:b6:9d:d6:21:
                    e7:df:41:b8:7a:28:2a:68:48:ca:a8:2d:ed:e1:e9:
                    46:5e:5a:72:6d:b4:84:38:87:91:fd:94:11:0b:28:
                    84:c6:c2:2f:2a:fb:01:f9:36:7a:09:75:d1:33:88:
                    3c:73:41:5b:c8:bf:94:89:70:a1:f0:c0:b9:2e:50:
                    53:1e:b1:17:64:69:f4:2d:81:e0:a9:0d:0e:32:e9:
                    ba:55:8a:85:f1:1b:6f:49:79:b4:7f:88:c3:0d:3e:
                    54:88:9b:3d:1f:38:8c:04:f3:ee:6a:63:2b:f5:c6:
                    db:b4:83:aa:c4:78:41:3a:7d:4b:e1:c8:3e:71:ca:
                    1b:61:59:ea:c6:c4:ca:32:5e:c9:e9:bf:12:29:e6:
                    c6:c3:63:fe:a0:55:da:7a:f1:60:98:4d:26:ed:fa:
                    70:2d
                Exponent: 65537 (0x10001)
        X509v3 extensions:
            X509v3 Key Usage: 
                Digital Signature, Key Encipherment
            X509v3 Basic Constraints: 
                CA:FALSE
            Netscape Cert Type: 
                SSL Server
            Netscape Comment: 
                OpenSSL Generated Server Certificate
            X509v3 Subject Key Identifier: 
                53:3F:ED:5D:09:07:B3:65:7B:AB:45:C9:24:5B:09:77:80:0A:96:ED
            X509v3 Authority Key Identifier: 
                keyid:F4:A7:C0:CC:91:46:AF:64:F3:91:F2:27:F8:C8:B2:6F:8A:87:32:73
                DirName:/C=DE/ST=Hessen/O=privacyidea/CN=CA001
                serial:FB:C8:EB:AC:83:CD:12:07

            X509v3 Extended Key Usage: 
                TLS Web Server Authentication
    Signature Algorithm: sha1WithRSAEncryption
         47:5e:a0:53:e1:d5:d5:97:f3:3b:85:b9:ff:91:6c:2b:7e:bd:
         f2:6b:d2:9d:7c:f1:a8:8a:06:9d:f2:08:bf:ca:26:bf:83:e4:
         a3:32:a2:53:cb:62:7d:1c:bf:25:ab:7a:16:87:62:f4:7f:d9:
         dc:aa:9b:1e:3f:14:c3:e8:28:26:10:94:c7:d5:2e:e5:9f:c7:
         da:f0:e3:5a:bd:1f:46:08:0e:08:8b:87:b7:0b:80:c0:d1:91:
         5b:6f:70:5b:1c:81:77:fe:1d:ef:fe:66:d4:36:da:11:1f:63:
         a7:e0:54:a8:70:9f:78:9a:98:0b:e9:bf:6d:6c:bf:94:be:71:
         d3:09:6f:b1:dd:6d:03:39:32:12:3f:f8:c0:8d:b1:11:19:74:
         f3:85:27:78:c7:f7:82:66:f0:cd:51:9c:ae:95:2a:c1:ab:0a:
         cb:5e:ea:3b:f6:49:82:69:f2:fb:eb:55:c6:2c:a5:49:65:71:
         fe:d1:f5:fd:b8:fc:7a:89:20:51:51:82:7f:b2:64:a7:e0:ef:
         6c:3a:22:c0:08:60:7b:97:4f:d0:82:3f:3d:e9:1a:77:b4:2f:
         63:74:cb:8b:bc:66:75:fb:fc:9c:6b:3a:02:dc:39:f1:10:0d:
         ca:cf:d9:1a:89:a6:98:98:cb:d1:04:11:ae:9b:15:7d:bd:b0:
         a1:a8:eb:9c
-----BEGIN CERTIFICATE-----
MIIEJjCCAw6gAwIBAgIEEAAAyjANBgkqhkiG9w0BAQUFADBEMQswCQYDVQQGEwJE
RTEPMA0GA1UECAwGSGVzc2VuMRQwEgYDVQQKDAtwcml2YWN5aWRlYTEOMAwGA1UE
AwwFQ0EwMDEwHhcNMTUxMjI5MTAxMTMwWhcNMTYxMjI4MTAxMTMwWjBUMQswCQYD
VQQGEwJERTEPMA0GA1UECAwGSGVzc2VuMRQwEgYDVQQKDAtwcml2YWN5aWRlYTEe
MBwGA1UEAwwVcmVxdWVzdGVyLmxvY2FsZG9tYWluMIIBIjANBgkqhkiG9w0BAQEF
AAOCAQ8AMIIBCgKCAQEAzb4UT/rOAT9CIhsdnK/dktJ/22y3PjlDQ2sTA/EF9Ad0
vHZpKAuvGY7X/OPNxljyyn8IbVP8BwJEJMa0NEyMBP4zDkDiILoCc1r39U9jbszG
tt9UHTc5fVE2Jl+93D+oi2uirrad1iHn30G4eigqaEjKqC3t4elGXlpybbSEOIeR
/ZQRCyiExsIvKvsB+TZ6CXXRM4g8c0FbyL+UiXCh8MC5LlBTHrEXZGn0LYHgqQ0O
Mum6VYqF8RtvSXm0f4jDDT5UiJs9HziMBPPuamMr9cbbtIOqxHhBOn1L4cg+ccob
YVnqxsTKMl7J6b8SKebGw2P+oFXaevFgmE0m7fpwLQIDAQABo4IBDjCCAQowCwYD
VR0PBAQDAgWgMAkGA1UdEwQCMAAwEQYJYIZIAYb4QgEBBAQDAgZAMDMGCWCGSAGG
+EIBDQQmFiRPcGVuU1NMIEdlbmVyYXRlZCBTZXJ2ZXIgQ2VydGlmaWNhdGUwHQYD
VR0OBBYEFFM/7V0JB7Nle6tFySRbCXeACpbtMHQGA1UdIwRtMGuAFPSnwMyRRq9k
85HyJ/jIsm+KhzJzoUikRjBEMQswCQYDVQQGEwJERTEPMA0GA1UECAwGSGVzc2Vu
MRQwEgYDVQQKDAtwcml2YWN5aWRlYTEOMAwGA1UEAwwFQ0EwMDGCCQD7yOusg80S
BzATBgNVHSUEDDAKBggrBgEFBQcDATANBgkqhkiG9w0BAQUFAAOCAQEAR16gU+HV
1ZfzO4W5/5FsK3698mvSnXzxqIoGnfIIv8omv4PkozKiU8tifRy/Jat6Fodi9H/Z
3KqbHj8Uw+goJhCUx9Uu5Z/H2vDjWr0fRggOCIuHtwuAwNGRW29wWxyBd/4d7/5m
1DbaER9jp+BUqHCfeJqYC+m/bWy/lL5x0wlvsd1tAzkyEj/4wI2xERl084UneMf3
gmbwzVGcrpUqwasKy17qO/ZJgmny++tVxiylSWVx/tH1/bj8eokgUVGCf7Jkp+Dv
bDoiwAhge5dP0II/Pekad7QvY3TLi7xmdfv8nGs6Atw58RANys/ZGommmJjL0QQR
rpsVfb2woajrnA==
-----END CERTIFICATE-----
