Certificate:
    Data:
        Version: 3 (0x2)
        Serial Number: 268435654 (0x100000c6)
    Signature Algorithm: sha1WithRSAEncryption
        Issuer: C=DE, ST=Hessen, O=privacyidea, CN=CA001
        Validity
            Not Before: Dec 29 10:07:52 2015 GMT
            Not After : Dec 28 10:07:52 2016 GMT
        Subject: C=DE, ST=Hessen, O=privacyidea, CN=requester.localdomain
        Subject Public Key Info:
            Public Key Algorithm: rsaEncryption
                Public-Key: (2048 bit)
                Modulus:
                    00:cd:be:14:4f:fa:ce:01:3f:42:22:1b:1d:9c:af:
                    dd:92:d2:7f:db:6c:b7:3e:39:43:43:6b:13:03:f1:
                    05:f4:07:74:bc:76:69:28:0b:af:19:8e:d7:fc:e3:
                    cd:c6:58:f2:ca:7f:08:6d:53:fc:07:02:44:24:c6:
                    b4:34:4c:8c:04:fe:33:0e:40:e2:20:ba:02:73:5a:
                    f7:f5:4f:63:6e:cc:c6:b6:df:54:1d:37:39:7d:51:
                    36:26:5f:bd:dc:3f:a8:8b:6b:a2:ae:b6:9d:d6:21:
                    e7:df:41:b8:7a:28:2a:68:48:ca:a8:2d:ed:e1:e9:
                    46:5e:5a:72:6d:b4:84:38:87:91:fd:94:11:0b:28:
                    84:c6:c2:2f:2a:fb:01:f9:36:7a:09:75:d1:33:88:
                    3c:73:41:5b:c8:bf:94:89:70:a1:f0:c0:b9:2e:50:
                    53:1e:b1:17:64:69:f4:2d:81:e0:a9:0d:0e:32:e9:
                    ba:55:8a:85:f1:1b:6f:49:79:b4:7f:88:c3:0d:3e:
                    54:88:9b:3d:1f:38:8c:04:f3:ee:6a:63:2b:f5:c6:
                    db:b4:83:aa:c4:78:41:3a:7d:4b:e1:c8:3e:71:ca:
                    1b:61:59:ea:c6:c4:ca:32:5e:c9:e9:bf:12:29:e6:
                    c6:c3:63:fe:a0:55:da:7a:f1:60:98:4d:26:ed:fa:
                    70:2d
                Exponent: 65537 (0x10001)
        X509v3 extensions:
            X509v3 Key Usage: 
                Digital Signature, Key Encipherment
            X509v3 Basic Constraints: 
                CA:FALSE
            Netscape Cert Type: 
                SSL Server
            Netscape Comment: 
                OpenSSL Generated Server Certificate
            X509v3 Subject Key Identifier: 
                53:3F:ED:5D:09:07:B3:65:7B:AB:45:C9:24:5B:09:77:80:0A:96:ED
            X509v3 Authority Key Identifier: 
                keyid:F4:A7:C0:CC:91:46:AF:64:F3:91:F2:27:F8:C8:B2:6F:8A:87:32:73
                DirName:/C=DE/ST=Hessen/O=privacyidea/CN=CA001
                serial:FB:C8:EB:AC:83:CD:12:07

            X509v3 Extended Key Usage: 
                TLS Web Server Authentication
    Signature Algorithm: sha1WithRSAEncryption
         88:59:73:f7:86:d6:18:41:e5:3c:b2:99:e2:ff:94:83:30:42:
         e9:b1:ad:c4:ba:97:c3:cf:3a:ad:24:53:1d:79:86:3f:6d:cc:
         16:30:a5:74:8e:af:dd:33:8e:ee:9a:c8:cc:65:6e:e8:fd:94:
         30:e6:c1:0f:98:c4:aa:b2:a6:72:94:c9:4a:21:f6:b3:94:68:
         86:d5:96:ff:3c:fc:a0:a3:29:d9:eb:97:4e:7c:f8:57:1f:3c:
         99:8b:91:6d:01:f9:2c:11:f2:b6:05:58:9e:75:72:28:ca:6a:
         6e:2d:f9:a5:66:91:cf:3a:fe:e4:3f:8f:38:84:60:54:c1:a0:
         07:93:ee:d9:27:98:29:30:65:0f:f9:32:03:fe:7a:d6:96:7a:
         45:7e:14:9e:0f:2b:e0:35:cc:c8:71:6d:c6:c1:c9:e5:a5:63:
         ba:c4:1a:ef:0a:f5:3e:b3:87:d0:38:6c:59:43:11:b8:7e:91:
         2a:0c:22:20:99:ca:f8:f6:28:d0:86:bd:8b:d4:13:c4:c0:3e:
         1c:cc:c9:0a:f2:4e:8f:c6:f9:a1:c9:06:3c:44:06:32:55:b3:
         28:be:92:df:37:8e:f4:f1:af:79:32:1d:06:92:10:a8:6b:e8:
         ff:78:5a:b0:88:c6:9b:d1:5a:1a:58:8d:c3:ed:77:06:f1:26:
         ef:d5:94:64
-----BEGIN CERTIFICATE-----
MIIEJjCCAw6gAwIBAgIEEAAAxjANBgkqhkiG9w0BAQUFADBEMQswCQYDVQQGEwJE
RTEPMA0GA1UECAwGSGVzc2VuMRQwEgYDVQQKDAtwcml2YWN5aWRlYTEOMAwGA1UE
AwwFQ0EwMDEwHhcNMTUxMjI5MTAwNzUyWhcNMTYxMjI4MTAwNzUyWjBUMQswCQYD
VQQGEwJERTEPMA0GA1UECAwGSGVzc2VuMRQwEgYDVQQKDAtwcml2YWN5aWRlYTEe
MBwGA1UEAwwVcmVxdWVzdGVyLmxvY2FsZG9tYWluMIIBIjANBgkqhkiG9w0BAQEF
AAOCAQ8AMIIBCgKCAQEAzb4UT/rOAT9CIhsdnK/dktJ/22y3PjlDQ2sTA/EF9Ad0
vHZpKAuvGY7X/OPNxljyyn8IbVP8BwJEJMa0NEyMBP4zDkDiILoCc1r39U9jbszG
tt9UHTc5fVE2Jl+93D+oi2uirrad1iHn30G4eigqaEjKqC3t4elGXlpybbSEOIeR
/ZQRCyiExsIvKvsB+TZ6CXXRM4g8c0FbyL+UiXCh8MC5LlBTHrEXZGn0LYHgqQ0O
Mum6VYqF8RtvSXm0f4jDDT5UiJs9HziMBPPuamMr9cbbtIOqxHhBOn1L4cg+ccob
YVnqxsTKMl7J6b8SKebGw2P+oFXaevFgmE0m7fpwLQIDAQABo4IBDjCCAQowCwYD
VR0PBAQDAgWgMAkGA1UdEwQCMAAwEQYJYIZIAYb4QgEBBAQDAgZAMDMGCWCGSAGG
+EIBDQQmFiRPcGVuU1NMIEdlbmVyYXRlZCBTZXJ2ZXIgQ2VydGlmaWNhdGUwHQYD
VR0OBBYEFFM/7V0JB7Nle6tFySRbCXeACpbtMHQGA1UdIwRtMGuAFPSnwMyRRq9k
85HyJ/jIsm+KhzJzoUikRjBEMQswCQYDVQQGEwJERTEPMA0GA1UECAwGSGVzc2Vu
MRQwEgYDVQQKDAtwcml2YWN5aWRlYTEOMAwGA1UEAwwFQ0EwMDGCCQD7yOusg80S
BzATBgNVHSUEDDAKBggrBgEFBQcDATANBgkqhkiG9w0BAQUFAAOCAQEAiFlz94bW
GEHlPLKZ4v+UgzBC6bGtxLqXw886rSRTHXmGP23MFjCldI6v3TOO7prIzGVu6P2U
MObBD5jEqrKmcpTJSiH2s5RohtWW/zz8oKMp2euXTnz4Vx88mYuRbQH5LBHytgVY
nnVyKMpqbi35pWaRzzr+5D+POIRgVMGgB5Pu2SeYKTBlD/kyA/561pZ6RX4Ung8r
4DXMyHFtxsHJ5aVjusQa7wr1PrOH0DhsWUMRuH6RKgwiIJnK+PYo0Ia9i9QTxMA+
HMzJCvJOj8b5ockGPEQGMlWzKL6S3zeO9PGveTIdBpIQqGvo/3hasIjGm9FaGliN
w+13BvEm79WUZA==
-----END CERTIFICATE-----
