Certificate:
    Data:
        Version: 3 (0x2)
        Serial Number: 268435650 (0x100000c2)
    Signature Algorithm: sha1WithRSAEncryption
        Issuer: C=DE, ST=Hessen, O=privacyidea, CN=CA001
        Validity
            Not Before: Dec 30 11:35:58 2015 GMT
            Not After : Dec 29 11:35:58 2016 GMT
        Subject: C=DE, ST=Hessen, O=privacyidea, CN=requester.localdomain
        Subject Public Key Info:
            Public Key Algorithm: rsaEncryption
                Public-Key: (2048 bit)
                Modulus:
                    00:cd:be:14:4f:fa:ce:01:3f:42:22:1b:1d:9c:af:
                    dd:92:d2:7f:db:6c:b7:3e:39:43:43:6b:13:03:f1:
                    05:f4:07:74:bc:76:69:28:0b:af:19:8e:d7:fc:e3:
                    cd:c6:58:f2:ca:7f:08:6d:53:fc:07:02:44:24:c6:
                    b4:34:4c:8c:04:fe:33:0e:40:e2:20:ba:02:73:5a:
                    f7:f5:4f:63:6e:cc:c6:b6:df:54:1d:37:39:7d:51:
                    36:26:5f:bd:dc:3f:a8:8b:6b:a2:ae:b6:9d:d6:21:
                    e7:df:41:b8:7a:28:2a:68:48:ca:a8:2d:ed:e1:e9:
                    46:5e:5a:72:6d:b4:84:38:87:91:fd:94:11:0b:28:
                    84:c6:c2:2f:2a:fb:01:f9:36:7a:09:75:d1:33:88:
                    3c:73:41:5b:c8:bf:94:89:70:a1:f0:c0:b9:2e:50:
                    53:1e:b1:17:64:69:f4:2d:81:e0:a9:0d:0e:32:e9:
                    ba:55:8a:85:f1:1b:6f:49:79:b4:7f:88:c3:0d:3e:
                    54:88:9b:3d:1f:38:8c:04:f3:ee:6a:63:2b:f5:c6:
                    db:b4:83:aa:c4:78:41:3a:7d:4b:e1:c8:3e:71:ca:
                    1b:61:59:ea:c6:c4:ca:32:5e:c9:e9:bf:12:29:e6:
                    c6:c3:63:fe:a0:55:da:7a:f1:60:98:4d:26:ed:fa:
                    70:2d
                Exponent: 65537 (0x10001)
        X509v3 extensions:
            X509v3 Key Usage: 
                Digital Signature, Key Encipherment
            X509v3 Basic Constraints: 
                CA:FALSE
            Netscape Cert Type: 
                SSL Server
            Netscape Comment: 
                OpenSSL Generated Server Certificate
            X509v3 Subject Key Identifier: 
                53:3F:ED:5D:09:07:B3:65:7B:AB:45:C9:24:5B:09:77:80:0A:96:ED
            X509v3 Authority Key Identifier: 
                keyid:F4:A7:C0:CC:91:46:AF:64:F3:91:F2:27:F8:C8:B2:6F:8A:87:32:73
                DirName:/C=DE/ST=Hessen/O=privacyidea/CN=CA001
                serial:FB:C8:EB:AC:83:CD:12:07

            X509v3 Extended Key Usage: 
                TLS Web Server Authentication
    Signature Algorithm: sha1WithRSAEncryption
         9f:18:4e:b8:1b:45:c9:65:31:af:38:31:44:78:16:f8:fa:4f:
         4b:62:b7:c0:c4:47:cf:40:cd:e1:82:c5:40:fb:ec:f6:d6:7d:
         c0:19:87:a8:8c:ec:07:04:94:dd:0c:80:7b:45:e8:c3:26:cd:
         ea:df:64:8c:7b:5b:1a:18:62:f6:62:da:6e:a1:b5:d4:5d:2a:
         12:78:c9:43:3f:95:bf:9f:a8:26:a6:18:8e:25:f1:80:a4:c0:
         a0:77:0b:96:3a:ae:44:61:cf:8e:06:a6:03:1f:ee:f6:94:cc:
         46:1e:27:84:5e:2f:9e:58:ec:a3:46:ec:9b:d5:6e:b2:b3:ab:
         58:99:2d:29:f3:64:14:cc:b3:88:a6:cf:38:b9:87:d4:ff:d7:
         6e:24:9b:a5:19:95:c4:7c:c0:1f:a3:3a:80:2e:49:65:1f:ea:
         aa:34:fb:fb:ad:a9:c8:d9:87:8d:b2:35:01:84:c2:be:7c:df:
         10:90:fd:f6:8c:f0:a5:3a:28:6b:75:20:dc:7a:0f:b6:72:b5:
         b7:6b:06:f9:92:e0:a8:71:a6:16:13:1f:c0:df:7f:23:2c:36:
         05:c5:03:a9:81:39:9f:70:87:8c:79:8a:3e:a8:45:db:bc:d4:
         be:07:84:db:7a:23:ac:22:2d:92:ac:e7:6f:bf:fd:8c:45:f9:
         6c:41:9b:45
-----BEGIN CERTIFICATE-----
MIIEJjCCAw6gAwIBAgIEEAAAwjANBgkqhkiG9w0BAQUFADBEMQswCQYDVQQGEwJE
RTEPMA0GA1UECAwGSGVzc2VuMRQwEgYDVQQKDAtwcml2YWN5aWRlYTEOMAwGA1UE
AwwFQ0EwMDEwHhcNMTUxMjMwMTEzNTU4WhcNMTYxMjI5MTEzNTU4WjBUMQswCQYD
VQQGEwJERTEPMA0GA1UECAwGSGVzc2VuMRQwEgYDVQQKDAtwcml2YWN5aWRlYTEe
MBwGA1UEAwwVcmVxdWVzdGVyLmxvY2FsZG9tYWluMIIBIjANBgkqhkiG9w0BAQEF
AAOCAQ8AMIIBCgKCAQEAzb4UT/rOAT9CIhsdnK/dktJ/22y3PjlDQ2sTA/EF9Ad0
vHZpKAuvGY7X/OPNxljyyn8IbVP8BwJEJMa0NEyMBP4zDkDiILoCc1r39U9jbszG
tt9UHTc5fVE2Jl+93D+oi2uirrad1iHn30G4eigqaEjKqC3t4elGXlpybbSEOIeR
/ZQRCyiExsIvKvsB+TZ6CXXRM4g8c0FbyL+UiXCh8MC5LlBTHrEXZGn0LYHgqQ0O
Mum6VYqF8RtvSXm0f4jDDT5UiJs9HziMBPPuamMr9cbbtIOqxHhBOn1L4cg+ccob
YVnqxsTKMl7J6b8SKebGw2P+oFXaevFgmE0m7fpwLQIDAQABo4IBDjCCAQowCwYD
VR0PBAQDAgWgMAkGA1UdEwQCMAAwEQYJYIZIAYb4QgEBBAQDAgZAMDMGCWCGSAGG
+EIBDQQmFiRPcGVuU1NMIEdlbmVyYXRlZCBTZXJ2ZXIgQ2VydGlmaWNhdGUwHQYD
VR0OBBYEFFM/7V0JB7Nle6tFySRbCXeACpbtMHQGA1UdIwRtMGuAFPSnwMyRRq9k
85HyJ/jIsm+KhzJzoUikRjBEMQswCQYDVQQGEwJERTEPMA0GA1UECAwGSGVzc2Vu
MRQwEgYDVQQKDAtwcml2YWN5aWRlYTEOMAwGA1UEAwwFQ0EwMDGCCQD7yOusg80S
BzATBgNVHSUEDDAKBggrBgEFBQcDATANBgkqhkiG9w0BAQUFAAOCAQEAnxhOuBtF
yWUxrzgxRHgW+PpPS2K3wMRHz0DN4YLFQPvs9tZ9wBmHqIzsBwSU3QyAe0XowybN
6t9kjHtbGhhi9mLabqG11F0qEnjJQz+Vv5+oJqYYjiXxgKTAoHcLljquRGHPjgam
Ax/u9pTMRh4nhF4vnljso0bsm9VusrOrWJktKfNkFMyziKbPOLmH1P/XbiSbpRmV
xHzAH6M6gC5JZR/qqjT7+62pyNmHjbI1AYTCvnzfEJD99ozwpTooa3Ug3HoPtnK1
t2sG+ZLgqHGmFhMfwN9/Iyw2BcUDqYE5n3CHjHmKPqhF27zUvgeE23ojrCItkqzn
b7/9jEX5bEGbRQ==
-----END CERTIFICATE-----
