Certificate:
    Data:
        Version: 3 (0x2)
        Serial Number: 268435659 (0x100000cb)
    Signature Algorithm: sha1WithRSAEncryption
        Issuer: C=DE, ST=Hessen, O=privacyidea, CN=CA001
        Validity
            Not Before: Dec 29 10:19:09 2015 GMT
            Not After : Dec 28 10:19:09 2016 GMT
        Subject: CN=selfservice,CN=user,O=realm1/emailAddress=meine
        Subject Public Key Info:
            Public Key Algorithm: rsaEncryption
                Public-Key: (2048 bit)
                Modulus:
                    00:cf:3c:d4:33:0e:12:c4:e6:da:cd:b6:56:a1:1c:
                    26:bb:26:1c:8a:4a:73:a8:58:8a:b6:1e:b3:8b:99:
                    d2:1d:07:c2:92:89:79:c0:69:d8:c8:df:28:61:98:
                    1e:b3:fe:ae:2b:bd:78:a9:f7:6e:47:dc:a3:a0:16:
                    8c:85:02:c1:4e:92:fd:72:6e:f0:c8:03:29:9b:b8:
                    00:6e:c0:83:95:c8:34:20:36:9c:b3:e5:e4:e6:76:
                    73:a3:1a:ad:40:96:e0:53:54:00:ec:76:79:9a:c6:
                    0d:7e:b6:bd:29:ec:83:f3:cb:89:a4:cb:6c:00:ba:
                    0c:c5:78:0f:ff:69:b8:94:f4:04:70:43:3f:d8:9e:
                    d7:a7:fb:5d:ce:75:8e:da:e7:c4:07:b1:9d:de:6f:
                    88:4b:b6:4d:9a:cf:f9:bc:fa:9f:cd:32:6d:f6:3a:
                    0b:0d:23:42:78:ec:97:42:bf:0e:4d:60:56:e1:d3:
                    02:f2:19:cb:84:57:90:e5:70:a1:a2:83:35:86:e2:
                    da:86:9f:f9:8a:c4:79:b3:52:28:da:cb:bb:34:ca:
                    d3:da:91:4a:cf:8d:76:a2:b2:6b:9b:f9:96:fd:09:
                    2a:da:11:23:4d:f0:cb:d6:b2:b1:0e:12:6c:9a:19:
                    65:98:87:ca:e4:ee:24:ce:44:ac:90:8f:9d:1b:c5:
                    2a:9d
                Exponent: 65537 (0x10001)
        X509v3 extensions:
            X509v3 Key Usage: 
                Digital Signature, Key Encipherment
            X509v3 Basic Constraints: 
                CA:FALSE
            Netscape Cert Type: 
                SSL Server
            Netscape Comment: 
                OpenSSL Generated Server Certificate
            X509v3 Subject Key Identifier: 
                4D:07:90:AD:FF:1D:0D:E7:1A:DD:D6:2E:FA:BA:34:CB:AA:1F:24:C6
            X509v3 Authority Key Identifier: 
                keyid:F4:A7:C0:CC:91:46:AF:64:F3:91:F2:27:F8:C8:B2:6F:8A:87:32:73
                DirName:/C=DE/ST=Hessen/O=privacyidea/CN=CA001
                serial:FB:C8:EB:AC:83:CD:12:07

            X509v3 Extended Key Usage: 
                TLS Web Server Authentication
    Signature Algorithm: sha1WithRSAEncryption
         37:09:24:ad:eb:46:2e:1f:9b:bd:a0:0c:51:af:bb:ad:6d:45:
         9b:44:2a:86:d9:2c:a3:67:83:4b:6d:d9:94:a7:4c:a9:b7:5d:
         5f:95:ff:ab:e1:09:34:04:c2:5a:ec:64:0d:b8:e6:a3:af:3b:
         0d:9c:29:b7:67:a1:ac:a7:8a:34:bb:58:53:58:38:30:ab:74:
         8c:cf:05:78:3e:57:1c:0e:07:bd:64:e4:85:f2:bd:a0:21:f0:
         79:02:4b:33:d0:c7:b0:9c:69:be:fd:da:80:e9:34:4a:37:95:
         58:e4:2e:a3:07:0f:7d:6c:7f:c1:09:3b:4e:57:a4:89:97:3f:
         14:f8:a4:8d:51:76:4b:35:7e:d4:85:bb:6d:9e:5e:00:ff:95:
         8c:86:1e:80:e5:d2:61:eb:68:1b:17:5b:33:80:ea:3b:be:1c:
         7a:f7:11:3a:94:3a:c0:02:b9:32:35:fe:30:1f:f8:7d:e5:13:
         80:00:8c:68:49:13:df:7f:44:80:e2:94:ef:6f:fb:8a:28:d5:
         62:e6:f7:6b:29:8d:b5:52:53:39:95:89:ae:32:0c:d8:32:d0:
         ab:01:d7:19:e0:5b:ca:11:67:0b:7c:8e:7f:33:30:d8:82:40:
         47:e7:cc:94:a6:f7:0a:69:be:52:18:b7:6c:ef:e9:7c:15:0c:
         f7:ea:48:f5
-----BEGIN CERTIFICATE-----
MIIEDzCCAvegAwIBAgIEEAAAyzANBgkqhkiG9w0BAQUFADBEMQswCQYDVQQGEwJE
RTEPMA0GA1UECAwGSGVzc2VuMRQwEgYDVQQKDAtwcml2YWN5aWRlYTEOMAwGA1UE
AwwFQ0EwMDEwHhcNMTUxMjI5MTAxOTA5WhcNMTYxMjI4MTAxOTA5WjA9MSUwIwYD
VQQDExxzZWxmc2VydmljZSxDTj11c2VyLE89cmVhbG0xMRQwEgYJKoZIhvcNAQkB
FgVtZWluZTCCASIwDQYJKoZIhvcNAQEBBQADggEPADCCAQoCggEBAM881DMOEsTm
2s22VqEcJrsmHIpKc6hYirYes4uZ0h0HwpKJecBp2MjfKGGYHrP+riu9eKn3bkfc
o6AWjIUCwU6S/XJu8MgDKZu4AG7Ag5XINCA2nLPl5OZ2c6MarUCW4FNUAOx2eZrG
DX62vSnsg/PLiaTLbAC6DMV4D/9puJT0BHBDP9ie16f7Xc51jtrnxAexnd5viEu2
TZrP+bz6n80ybfY6Cw0jQnjsl0K/Dk1gVuHTAvIZy4RXkOVwoaKDNYbi2oaf+YrE
ebNSKNrLuzTK09qRSs+NdqKya5v5lv0JKtoRI03wy9aysQ4SbJoZZZiHyuTuJM5E
rJCPnRvFKp0CAwEAAaOCAQ4wggEKMAsGA1UdDwQEAwIFoDAJBgNVHRMEAjAAMBEG
CWCGSAGG+EIBAQQEAwIGQDAzBglghkgBhvhCAQ0EJhYkT3BlblNTTCBHZW5lcmF0
ZWQgU2VydmVyIENlcnRpZmljYXRlMB0GA1UdDgQWBBRNB5Ct/x0N5xrd1i76ujTL
qh8kxjB0BgNVHSMEbTBrgBT0p8DMkUavZPOR8if4yLJviocyc6FIpEYwRDELMAkG
A1UEBhMCREUxDzANBgNVBAgMBkhlc3NlbjEUMBIGA1UECgwLcHJpdmFjeWlkZWEx
DjAMBgNVBAMMBUNBMDAxggkA+8jrrIPNEgcwEwYDVR0lBAwwCgYIKwYBBQUHAwEw
DQYJKoZIhvcNAQEFBQADggEBADcJJK3rRi4fm72gDFGvu61tRZtEKobZLKNng0tt
2ZSnTKm3XV+V/6vhCTQEwlrsZA245qOvOw2cKbdnoaynijS7WFNYODCrdIzPBXg+
VxwOB71k5IXyvaAh8HkCSzPQx7Ccab792oDpNEo3lVjkLqMHD31sf8EJO05XpImX
PxT4pI1Rdks1ftSFu22eXgD/lYyGHoDl0mHraBsXWzOA6ju+HHr3ETqUOsACuTI1
/jAf+H3lE4AAjGhJE99/RIDilO9v+4oo1WLm92spjbVSUzmVia4yDNgy0KsB1xng
W8oRZwt8jn8zMNiCQEfnzJSm9wppvlIYt2zv6XwVDPfqSPU=
-----END CERTIFICATE-----
