Certificate:
    Data:
        Version: 3 (0x2)
        Serial Number: 268435655 (0x100000c7)
    Signature Algorithm: sha1WithRSAEncryption
        Issuer: C=DE, ST=Hessen, O=privacyidea, CN=CA001
        Validity
            Not Before: Dec 29 10:09:15 2015 GMT
            Not After : Dec 28 10:09:15 2016 GMT
        Subject: C=DE, ST=Hessen, O=privacyidea, CN=requester.localdomain
        Subject Public Key Info:
            Public Key Algorithm: rsaEncryption
                Public-Key: (2048 bit)
                Modulus:
                    00:cd:be:14:4f:fa:ce:01:3f:42:22:1b:1d:9c:af:
                    dd:92:d2:7f:db:6c:b7:3e:39:43:43:6b:13:03:f1:
                    05:f4:07:74:bc:76:69:28:0b:af:19:8e:d7:fc:e3:
                    cd:c6:58:f2:ca:7f:08:6d:53:fc:07:02:44:24:c6:
                    b4:34:4c:8c:04:fe:33:0e:40:e2:20:ba:02:73:5a:
                    f7:f5:4f:63:6e:cc:c6:b6:df:54:1d:37:39:7d:51:
                    36:26:5f:bd:dc:3f:a8:8b:6b:a2:ae:b6:9d:d6:21:
                    e7:df:41:b8:7a:28:2a:68:48:ca:a8:2d:ed:e1:e9:
                    46:5e:5a:72:6d:b4:84:38:87:91:fd:94:11:0b:28:
                    84:c6:c2:2f:2a:fb:01:f9:36:7a:09:75:d1:33:88:
                    3c:73:41:5b:c8:bf:94:89:70:a1:f0:c0:b9:2e:50:
                    53:1e:b1:17:64:69:f4:2d:81:e0:a9:0d:0e:32:e9:
                    ba:55:8a:85:f1:1b:6f:49:79:b4:7f:88:c3:0d:3e:
                    54:88:9b:3d:1f:38:8c:04:f3:ee:6a:63:2b:f5:c6:
                    db:b4:83:aa:c4:78:41:3a:7d:4b:e1:c8:3e:71:ca:
                    1b:61:59:ea:c6:c4:ca:32:5e:c9:e9:bf:12:29:e6:
                    c6:c3:63:fe:a0:55:da:7a:f1:60:98:4d:26:ed:fa:
                    70:2d
                Exponent: 65537 (0x10001)
        X509v3 extensions:
            X509v3 Key Usage: 
                Digital Signature, Key Encipherment
            X509v3 Basic Constraints: 
                CA:FALSE
            Netscape Cert Type: 
                SSL Server
            Netscape Comment: 
                OpenSSL Generated Server Certificate
            X509v3 Subject Key Identifier: 
                53:3F:ED:5D:09:07:B3:65:7B:AB:45:C9:24:5B:09:77:80:0A:96:ED
            X509v3 Authority Key Identifier: 
                keyid:F4:A7:C0:CC:91:46:AF:64:F3:91:F2:27:F8:C8:B2:6F:8A:87:32:73
                DirName:/C=DE/ST=Hessen/O=privacyidea/CN=CA001
                serial:FB:C8:EB:AC:83:CD:12:07

            X509v3 Extended Key Usage: 
                TLS Web Server Authentication
    Signature Algorithm: sha1WithRSAEncryption
         6b:c1:1a:fd:e5:03:a6:e4:61:6e:6a:fd:c8:db:aa:80:d8:74:
         bd:1a:de:20:34:1e:aa:00:5f:e2:6d:ab:a3:91:fa:17:36:a3:
         d2:5d:db:a3:ec:7e:57:b0:87:35:54:db:64:6d:9d:19:a1:8e:
         3e:a8:e8:44:16:c8:4f:48:17:91:e8:89:e7:d3:30:5e:ab:85:
         66:ec:db:43:9d:28:c9:89:5e:fb:05:1e:ac:4b:9e:c7:29:73:
         c9:8b:b0:fe:bc:2f:43:52:6f:22:2a:48:c5:9c:47:8f:82:1e:
         b3:af:00:38:50:52:e0:44:c5:4d:5e:2f:f9:e6:cb:d7:47:d2:
         30:66:57:db:94:86:0d:3d:7c:36:8b:26:21:aa:dd:ff:16:e5:
         51:eb:93:b7:12:ac:e2:20:4d:87:c9:b5:64:f6:9d:94:ea:4e:
         3f:a7:65:a7:14:0d:b6:c5:b6:fe:25:af:ea:31:28:b9:09:38:
         e3:af:34:02:a1:0c:c4:dc:6b:03:78:93:3e:6d:43:b5:df:65:
         88:e2:37:79:b8:c2:6c:a8:f0:73:5b:5f:8d:d4:06:aa:0e:f7:
         7d:55:84:1c:0d:7f:6f:55:40:30:80:b0:89:37:00:39:51:30:
         64:c6:6f:06:82:c6:21:bc:ea:f1:cd:9b:cd:ee:74:80:3c:cb:
         ea:b4:31:65
-----BEGIN CERTIFICATE-----
MIIEJjCCAw6gAwIBAgIEEAAAxzANBgkqhkiG9w0BAQUFADBEMQswCQYDVQQGEwJE
RTEPMA0GA1UECAwGSGVzc2VuMRQwEgYDVQQKDAtwcml2YWN5aWRlYTEOMAwGA1UE
AwwFQ0EwMDEwHhcNMTUxMjI5MTAwOTE1WhcNMTYxMjI4MTAwOTE1WjBUMQswCQYD
VQQGEwJERTEPMA0GA1UECAwGSGVzc2VuMRQwEgYDVQQKDAtwcml2YWN5aWRlYTEe
MBwGA1UEAwwVcmVxdWVzdGVyLmxvY2FsZG9tYWluMIIBIjANBgkqhkiG9w0BAQEF
AAOCAQ8AMIIBCgKCAQEAzb4UT/rOAT9CIhsdnK/dktJ/22y3PjlDQ2sTA/EF9Ad0
vHZpKAuvGY7X/OPNxljyyn8IbVP8BwJEJMa0NEyMBP4zDkDiILoCc1r39U9jbszG
tt9UHTc5fVE2Jl+93D+oi2uirrad1iHn30G4eigqaEjKqC3t4elGXlpybbSEOIeR
/ZQRCyiExsIvKvsB+TZ6CXXRM4g8c0FbyL+UiXCh8MC5LlBTHrEXZGn0LYHgqQ0O
Mum6VYqF8RtvSXm0f4jDDT5UiJs9HziMBPPuamMr9cbbtIOqxHhBOn1L4cg+ccob
YVnqxsTKMl7J6b8SKebGw2P+oFXaevFgmE0m7fpwLQIDAQABo4IBDjCCAQowCwYD
VR0PBAQDAgWgMAkGA1UdEwQCMAAwEQYJYIZIAYb4QgEBBAQDAgZAMDMGCWCGSAGG
+EIBDQQmFiRPcGVuU1NMIEdlbmVyYXRlZCBTZXJ2ZXIgQ2VydGlmaWNhdGUwHQYD
VR0OBBYEFFM/7V0JB7Nle6tFySRbCXeACpbtMHQGA1UdIwRtMGuAFPSnwMyRRq9k
85HyJ/jIsm+KhzJzoUikRjBEMQswCQYDVQQGEwJERTEPMA0GA1UECAwGSGVzc2Vu
MRQwEgYDVQQKDAtwcml2YWN5aWRlYTEOMAwGA1UEAwwFQ0EwMDGCCQD7yOusg80S
BzATBgNVHSUEDDAKBggrBgEFBQcDATANBgkqhkiG9w0BAQUFAAOCAQEAa8Ea/eUD
puRhbmr9yNuqgNh0vRreIDQeqgBf4m2ro5H6Fzaj0l3bo+x+V7CHNVTbZG2dGaGO
PqjoRBbIT0gXkeiJ59MwXquFZuzbQ50oyYle+wUerEuexylzyYuw/rwvQ1JvIipI
xZxHj4Ies68AOFBS4ETFTV4v+ebL10fSMGZX25SGDT18NosmIard/xblUeuTtxKs
4iBNh8m1ZPadlOpOP6dlpxQNtsW2/iWv6jEouQk44680AqEMxNxrA3iTPm1Dtd9l
iOI3ebjCbKjwc1tfjdQGqg73fVWEHA1/b1VAMICwiTcAOVEwZMZvBoLGIbzq8c2b
ze50gDzL6rQxZQ==
-----END CERTIFICATE-----
