Certificate:
    Data:
        Version: 3 (0x2)
        Serial Number: 268435660 (0x100000cc)
    Signature Algorithm: sha1WithRSAEncryption
        Issuer: C=DE, ST=Hessen, O=privacyidea, CN=CA001
        Validity
            Not Before: Dec 18 17:23:55 2015 GMT
            Not After : Dec 17 17:23:55 2016 GMT
        Subject: CN=selfservice,CN=user,O=realm1/emailAddress=meine
        Subject Public Key Info:
            Public Key Algorithm: rsaEncryption
                Public-Key: (2048 bit)
                Modulus:
                    00:cf:3c:d4:33:0e:12:c4:e6:da:cd:b6:56:a1:1c:
                    26:bb:26:1c:8a:4a:73:a8:58:8a:b6:1e:b3:8b:99:
                    d2:1d:07:c2:92:89:79:c0:69:d8:c8:df:28:61:98:
                    1e:b3:fe:ae:2b:bd:78:a9:f7:6e:47:dc:a3:a0:16:
                    8c:85:02:c1:4e:92:fd:72:6e:f0:c8:03:29:9b:b8:
                    00:6e:c0:83:95:c8:34:20:36:9c:b3:e5:e4:e6:76:
                    73:a3:1a:ad:40:96:e0:53:54:00:ec:76:79:9a:c6:
                    0d:7e:b6:bd:29:ec:83:f3:cb:89:a4:cb:6c:00:ba:
                    0c:c5:78:0f:ff:69:b8:94:f4:04:70:43:3f:d8:9e:
                    d7:a7:fb:5d:ce:75:8e:da:e7:c4:07:b1:9d:de:6f:
                    88:4b:b6:4d:9a:cf:f9:bc:fa:9f:cd:32:6d:f6:3a:
                    0b:0d:23:42:78:ec:97:42:bf:0e:4d:60:56:e1:d3:
                    02:f2:19:cb:84:57:90:e5:70:a1:a2:83:35:86:e2:
                    da:86:9f:f9:8a:c4:79:b3:52:28:da:cb:bb:34:ca:
                    d3:da:91:4a:cf:8d:76:a2:b2:6b:9b:f9:96:fd:09:
                    2a:da:11:23:4d:f0:cb:d6:b2:b1:0e:12:6c:9a:19:
                    65:98:87:ca:e4:ee:24:ce:44:ac:90:8f:9d:1b:c5:
                    2a:9d
                Exponent: 65537 (0x10001)
        X509v3 extensions:
            X509v3 Key Usage: 
                Digital Signature, Key Encipherment
            X509v3 Basic Constraints: 
                CA:FALSE
            Netscape Cert Type: 
                SSL Server
            Netscape Comment: 
                OpenSSL Generated Server Certificate
            X509v3 Subject Key Identifier: 
                4D:07:90:AD:FF:1D:0D:E7:1A:DD:D6:2E:FA:BA:34:CB:AA:1F:24:C6
            X509v3 Authority Key Identifier: 
                keyid:F4:A7:C0:CC:91:46:AF:64:F3:91:F2:27:F8:C8:B2:6F:8A:87:32:73
                DirName:/C=DE/ST=Hessen/O=privacyidea/CN=CA001
                serial:FB:C8:EB:AC:83:CD:12:07

            X509v3 Extended Key Usage: 
                TLS Web Server Authentication
    Signature Algorithm: sha1WithRSAEncryption
         a6:e9:a3:14:56:6b:50:9e:89:d5:8d:cb:00:2b:d7:b0:e4:4c:
         3d:cb:70:e0:9d:fd:c2:c7:c0:58:01:02:0d:48:1f:59:7c:eb:
         ad:1a:76:8f:16:ed:ad:37:38:8c:71:3d:cf:28:0f:3a:77:bd:
         93:6c:df:52:6a:68:14:93:c4:22:66:dd:d2:a8:ff:9b:48:61:
         eb:0b:69:ec:c6:90:f5:d3:c0:56:d5:d4:47:c2:7c:8c:e4:14:
         1c:09:eb:c2:0f:62:80:5e:03:23:86:e2:1b:00:c7:8d:df:9b:
         74:07:dd:12:72:9f:2e:73:36:6b:29:cd:99:24:da:d3:2b:b8:
         00:9f:28:a9:68:64:ba:66:7b:96:cb:b3:83:c8:b5:36:0a:9c:
         7f:2c:a5:11:e3:8c:db:e9:15:62:a3:42:e7:97:78:21:a2:3b:
         07:fe:7e:c5:f4:de:3a:a1:9c:5a:ba:7b:86:fb:b5:80:39:dc:
         32:78:a9:33:fb:7c:f1:74:f5:e1:9f:06:dd:9e:36:ff:00:6a:
         a3:dc:2c:1d:d0:e1:f5:ef:46:30:44:72:b4:b0:fe:a2:0c:24:
         6e:1c:9d:b4:4e:59:ab:3c:c0:81:c3:8c:bc:ef:ee:da:7c:d3:
         f3:a6:9e:e8:ec:79:4f:dc:fc:85:3e:b9:e6:bf:4c:c8:d3:b9:
         9f:3d:c7:be
-----BEGIN CERTIFICATE-----
MIIEDzCCAvegAwIBAgIEEAAAzDANBgkqhkiG9w0BAQUFADBEMQswCQYDVQQGEwJE
RTEPMA0GA1UECAwGSGVzc2VuMRQwEgYDVQQKDAtwcml2YWN5aWRlYTEOMAwGA1UE
AwwFQ0EwMDEwHhcNMTUxMjE4MTcyMzU1WhcNMTYxMjE3MTcyMzU1WjA9MSUwIwYD
VQQDExxzZWxmc2VydmljZSxDTj11c2VyLE89cmVhbG0xMRQwEgYJKoZIhvcNAQkB
FgVtZWluZTCCASIwDQYJKoZIhvcNAQEBBQADggEPADCCAQoCggEBAM881DMOEsTm
2s22VqEcJrsmHIpKc6hYirYes4uZ0h0HwpKJecBp2MjfKGGYHrP+riu9eKn3bkfc
o6AWjIUCwU6S/XJu8MgDKZu4AG7Ag5XINCA2nLPl5OZ2c6MarUCW4FNUAOx2eZrG
DX62vSnsg/PLiaTLbAC6DMV4D/9puJT0BHBDP9ie16f7Xc51jtrnxAexnd5viEu2
TZrP+bz6n80ybfY6Cw0jQnjsl0K/Dk1gVuHTAvIZy4RXkOVwoaKDNYbi2oaf+YrE
ebNSKNrLuzTK09qRSs+NdqKya5v5lv0JKtoRI03wy9aysQ4SbJoZZZiHyuTuJM5E
rJCPnRvFKp0CAwEAAaOCAQ4wggEKMAsGA1UdDwQEAwIFoDAJBgNVHRMEAjAAMBEG
CWCGSAGG+EIBAQQEAwIGQDAzBglghkgBhvhCAQ0EJhYkT3BlblNTTCBHZW5lcmF0
ZWQgU2VydmVyIENlcnRpZmljYXRlMB0GA1UdDgQWBBRNB5Ct/x0N5xrd1i76ujTL
qh8kxjB0BgNVHSMEbTBrgBT0p8DMkUavZPOR8if4yLJviocyc6FIpEYwRDELMAkG
A1UEBhMCREUxDzANBgNVBAgMBkhlc3NlbjEUMBIGA1UECgwLcHJpdmFjeWlkZWEx
DjAMBgNVBAMMBUNBMDAxggkA+8jrrIPNEgcwEwYDVR0lBAwwCgYIKwYBBQUHAwEw
DQYJKoZIhvcNAQEFBQADggEBAKbpoxRWa1CeidWNywAr17DkTD3LcOCd/cLHwFgB
Ag1IH1l8660ado8W7a03OIxxPc8oDzp3vZNs31JqaBSTxCJm3dKo/5tIYesLaezG
kPXTwFbV1EfCfIzkFBwJ68IPYoBeAyOG4hsAx43fm3QH3RJyny5zNmspzZkk2tMr
uACfKKloZLpme5bLs4PItTYKnH8spRHjjNvpFWKjQueXeCGiOwf+fsX03jqhnFq6
e4b7tYA53DJ4qTP7fPF09eGfBt2eNv8AaqPcLB3Q4fXvRjBEcrSw/qIMJG4cnbRO
Was8wIHDjLzv7tp80/OmnujseU/c/IU+uea/TMjTuZ89x74=
-----END CERTIFICATE-----
