Certificate:
    Data:
        Version: 3 (0x2)
        Serial Number: 268435652 (0x100000c4)
    Signature Algorithm: sha1WithRSAEncryption
        Issuer: C=DE, ST=Hessen, O=privacyidea, CN=CA001
        Validity
            Not Before: Dec 30 11:35:58 2015 GMT
            Not After : Dec 29 11:35:58 2016 GMT
        Subject: CN=Steve Test/emailAddress=steve@openssl.org
        Subject Public Key Info:
            Public Key Algorithm: rsaEncryption
                Public-Key: (2048 bit)
                Modulus:
                    00:d2:81:89:20:51:48:0f:73:f4:11:32:24:d5:1f:
                    1c:fd:5c:f5:b6:e6:c5:f0:52:81:dc:d2:af:66:4a:
                    7c:93:31:61:5c:af:d1:6d:06:70:03:60:7c:72:0c:
                    88:dd:49:cd:9e:02:6c:d2:5a:d7:53:0f:f3:da:be:
                    69:64:b5:0f:0c:00:e3:b3:50:47:a3:b3:9b:ba:13:
                    50:d6:58:5a:4b:ab:39:e0:11:ca:0a:27:67:03:78:
                    22:66:6d:92:1e:1b:5c:49:ae:e6:6b:d1:8e:3b:9d:
                    06:d3:c6:ac:4d:53:43:10:ab:e8:96:c1:87:82:97:
                    99:8f:20:d3:99:12:37:31:84:e1:8a:ff:29:03:5f:
                    22:90:3e:7f:9b:e0:20:c1:ad:dc:ae:4c:39:1a:31:
                    96:17:02:8c:b2:d9:b4:0d:20:12:9b:7d:86:54:fd:
                    33:fd:c1:2a:62:46:f8:60:96:cf:6e:01:6f:22:df:
                    13:47:e7:97:ec:05:72:23:a3:62:f8:fa:ef:ac:9c:
                    72:f0:37:cb:2f:37:cf:90:a8:27:51:86:c6:d7:78:
                    08:8f:7e:25:a2:15:70:a2:fb:1c:b6:15:5e:a0:97:
                    8b:81:4c:09:28:8a:27:3b:94:bc:71:db:5b:71:37:
                    9a:2b:16:e0:6f:b5:c9:f5:4b:4f:20:ba:65:cf:af:
                    ad:ad
                Exponent: 65537 (0x10001)
        X509v3 extensions:
            X509v3 Key Usage: 
                Digital Signature, Key Encipherment
            X509v3 Basic Constraints: 
                CA:FALSE
            Netscape Cert Type: 
                SSL Server
            Netscape Comment: 
                OpenSSL Generated Server Certificate
            X509v3 Subject Key Identifier: 
                E5:25:6D:3E:AF:0D:DD:3F:4C:F2:45:19:39:D5:14:DB:7E:9C:C0:AD
            X509v3 Authority Key Identifier: 
                keyid:F4:A7:C0:CC:91:46:AF:64:F3:91:F2:27:F8:C8:B2:6F:8A:87:32:73
                DirName:/C=DE/ST=Hessen/O=privacyidea/CN=CA001
                serial:FB:C8:EB:AC:83:CD:12:07

            X509v3 Extended Key Usage: 
                TLS Web Server Authentication
    Signature Algorithm: sha1WithRSAEncryption
         16:77:ab:8f:5a:88:33:61:36:90:89:3e:73:f2:76:4f:54:93:
         31:29:4c:1c:ba:17:90:69:fc:a9:97:4a:7d:13:82:2a:03:df:
         52:ec:70:40:6d:ab:3a:0c:d5:7b:22:ac:39:90:af:ea:91:1d:
         4b:db:8f:e0:7d:a8:a0:3f:3b:f8:10:b2:fc:41:53:bc:74:9c:
         58:dc:6c:7c:bc:19:d9:4f:88:92:0f:24:f8:2a:95:a4:7a:5a:
         e5:bd:66:85:15:d1:d6:23:30:f2:aa:79:a6:90:a2:69:b6:9c:
         ad:ab:dc:2b:f8:df:63:10:09:4c:6b:b3:7b:8d:23:cb:48:a4:
         d1:88:0b:bd:af:30:eb:e7:30:e7:87:61:2d:66:12:ca:7d:25:
         c8:43:02:e0:2d:80:95:93:41:04:da:43:da:df:2e:dc:26:2d:
         4c:82:b8:95:a6:fd:b7:5c:a4:0b:67:b7:c5:1a:b3:a0:ea:f5:
         e5:0b:49:3c:29:a7:c8:ee:25:70:2e:cc:8e:4c:6f:ac:ec:14:
         2b:a3:e3:95:16:e1:56:cd:eb:42:5f:70:c0:ff:98:68:67:af:
         c7:97:a9:b8:99:28:f7:16:02:8a:f5:dd:f5:05:74:b0:15:c6:
         47:8c:ed:ea:8e:65:86:25:3b:95:8b:ca:19:82:5b:27:7d:0c:
         27:be:ef:56
-----BEGIN CERTIFICATE-----
MIIECTCCAvGgAwIBAgIEEAAAxDANBgkqhkiG9w0BAQUFADBEMQswCQYDVQQGEwJE
RTEPMA0GA1UECAwGSGVzc2VuMRQwEgYDVQQKDAtwcml2YWN5aWRlYTEOMAwGA1UE
AwwFQ0EwMDEwHhcNMTUxMjMwMTEzNTU4WhcNMTYxMjI5MTEzNTU4WjA3MRMwEQYD
VQQDEwpTdGV2ZSBUZXN0MSAwHgYJKoZIhvcNAQkBFhFzdGV2ZUBvcGVuc3NsLm9y
ZzCCASIwDQYJKoZIhvcNAQEBBQADggEPADCCAQoCggEBANKBiSBRSA9z9BEyJNUf
HP1c9bbmxfBSgdzSr2ZKfJMxYVyv0W0GcANgfHIMiN1JzZ4CbNJa11MP89q+aWS1
DwwA47NQR6Ozm7oTUNZYWkurOeARygonZwN4ImZtkh4bXEmu5mvRjjudBtPGrE1T
QxCr6JbBh4KXmY8g05kSNzGE4Yr/KQNfIpA+f5vgIMGt3K5MORoxlhcCjLLZtA0g
Ept9hlT9M/3BKmJG+GCWz24BbyLfE0fnl+wFciOjYvj676yccvA3yy83z5CoJ1GG
xtd4CI9+JaIVcKL7HLYVXqCXi4FMCSiKJzuUvHHbW3E3misW4G+1yfVLTyC6Zc+v
ra0CAwEAAaOCAQ4wggEKMAsGA1UdDwQEAwIFoDAJBgNVHRMEAjAAMBEGCWCGSAGG
+EIBAQQEAwIGQDAzBglghkgBhvhCAQ0EJhYkT3BlblNTTCBHZW5lcmF0ZWQgU2Vy
dmVyIENlcnRpZmljYXRlMB0GA1UdDgQWBBTlJW0+rw3dP0zyRRk51RTbfpzArTB0
BgNVHSMEbTBrgBT0p8DMkUavZPOR8if4yLJviocyc6FIpEYwRDELMAkGA1UEBhMC
REUxDzANBgNVBAgMBkhlc3NlbjEUMBIGA1UECgwLcHJpdmFjeWlkZWExDjAMBgNV
BAMMBUNBMDAxggkA+8jrrIPNEgcwEwYDVR0lBAwwCgYIKwYBBQUHAwEwDQYJKoZI
hvcNAQEFBQADggEBABZ3q49aiDNhNpCJPnPydk9UkzEpTBy6F5Bp/KmXSn0TgioD
31LscEBtqzoM1XsirDmQr+qRHUvbj+B9qKA/O/gQsvxBU7x0nFjcbHy8GdlPiJIP
JPgqlaR6WuW9ZoUV0dYjMPKqeaaQomm2nK2r3Cv432MQCUxrs3uNI8tIpNGIC72v
MOvnMOeHYS1mEsp9JchDAuAtgJWTQQTaQ9rfLtwmLUyCuJWm/bdcpAtnt8Uas6Dq
9eULSTwpp8juJXAuzI5Mb6zsFCuj45UW4VbN60JfcMD/mGhnr8eXqbiZKPcWAor1
3fUFdLAVxkeM7eqOZYYlO5WLyhmCWyd9DCe+71Y=
-----END CERTIFICATE-----
