Certificate:
    Data:
        Version: 3 (0x2)
        Serial Number: 268435653 (0x100000c5)
    Signature Algorithm: sha1WithRSAEncryption
        Issuer: C=DE, ST=Hessen, O=privacyidea, CN=CA001
        Validity
            Not Before: Dec 30 11:38:15 2015 GMT
            Not After : Dec 29 11:38:15 2016 GMT
        Subject: C=DE, ST=Hessen, O=privacyidea, CN=requester.localdomain
        Subject Public Key Info:
            Public Key Algorithm: rsaEncryption
                Public-Key: (2048 bit)
                Modulus:
                    00:cd:be:14:4f:fa:ce:01:3f:42:22:1b:1d:9c:af:
                    dd:92:d2:7f:db:6c:b7:3e:39:43:43:6b:13:03:f1:
                    05:f4:07:74:bc:76:69:28:0b:af:19:8e:d7:fc:e3:
                    cd:c6:58:f2:ca:7f:08:6d:53:fc:07:02:44:24:c6:
                    b4:34:4c:8c:04:fe:33:0e:40:e2:20:ba:02:73:5a:
                    f7:f5:4f:63:6e:cc:c6:b6:df:54:1d:37:39:7d:51:
                    36:26:5f:bd:dc:3f:a8:8b:6b:a2:ae:b6:9d:d6:21:
                    e7:df:41:b8:7a:28:2a:68:48:ca:a8:2d:ed:e1:e9:
                    46:5e:5a:72:6d:b4:84:38:87:91:fd:94:11:0b:28:
                    84:c6:c2:2f:2a:fb:01:f9:36:7a:09:75:d1:33:88:
                    3c:73:41:5b:c8:bf:94:89:70:a1:f0:c0:b9:2e:50:
                    53:1e:b1:17:64:69:f4:2d:81:e0:a9:0d:0e:32:e9:
                    ba:55:8a:85:f1:1b:6f:49:79:b4:7f:88:c3:0d:3e:
                    54:88:9b:3d:1f:38:8c:04:f3:ee:6a:63:2b:f5:c6:
                    db:b4:83:aa:c4:78:41:3a:7d:4b:e1:c8:3e:71:ca:
                    1b:61:59:ea:c6:c4:ca:32:5e:c9:e9:bf:12:29:e6:
                    c6:c3:63:fe:a0:55:da:7a:f1:60:98:4d:26:ed:fa:
                    70:2d
                Exponent: 65537 (0x10001)
        X509v3 extensions:
            X509v3 Key Usage: 
                Digital Signature, Key Encipherment
            X509v3 Basic Constraints: 
                CA:FALSE
            Netscape Cert Type: 
                SSL Server
            Netscape Comment: 
                OpenSSL Generated Server Certificate
            X509v3 Subject Key Identifier: 
                53:3F:ED:5D:09:07:B3:65:7B:AB:45:C9:24:5B:09:77:80:0A:96:ED
            X509v3 Authority Key Identifier: 
                keyid:F4:A7:C0:CC:91:46:AF:64:F3:91:F2:27:F8:C8:B2:6F:8A:87:32:73
                DirName:/C=DE/ST=Hessen/O=privacyidea/CN=CA001
                serial:FB:C8:EB:AC:83:CD:12:07

            X509v3 Extended Key Usage: 
                TLS Web Server Authentication
    Signature Algorithm: sha1WithRSAEncryption
         39:ab:7f:2e:ee:cc:c4:a9:6c:9f:6b:8f:29:29:33:bf:4d:9b:
         66:65:86:8a:cf:ed:e2:3d:b9:a6:24:48:3f:74:93:1b:22:13:
         40:a3:6a:5e:9d:e7:65:e7:7d:cc:47:1b:24:f5:6d:52:ce:52:
         ea:a4:9b:db:d8:cc:5e:9d:29:71:49:9b:ab:0f:57:b4:27:55:
         68:5c:1a:21:26:ba:6e:b6:b5:33:ec:29:12:7d:35:aa:1c:78:
         17:b6:fb:ac:32:e2:db:57:4f:64:a0:86:91:7e:81:b3:92:2e:
         e8:ae:0c:f4:6a:d2:a7:a9:1f:bb:3b:a5:07:3a:2d:fb:d4:0c:
         9c:ac:05:73:2a:0b:6b:11:77:5d:a6:9a:f5:5f:b5:2f:f4:e8:
         1e:fb:6d:7c:95:20:f3:77:f9:cb:aa:46:46:21:83:63:1a:a5:
         fb:1b:dd:09:e0:1b:01:b9:2c:77:5e:97:8f:a9:ee:3d:dc:bd:
         c8:b7:47:ec:75:41:48:ef:b8:ec:03:32:f0:92:e7:0e:da:1b:
         b3:ac:63:b4:c2:eb:b7:d7:b1:dc:82:4f:78:0a:c3:05:86:9c:
         5d:b5:f6:23:1a:6c:05:a6:60:d6:45:3a:86:db:c0:cd:93:4a:
         5d:a3:f9:0c:a1:c5:5f:8c:14:81:f1:ea:c0:dc:e0:19:35:65:
         c7:b8:89:53
-----BEGIN CERTIFICATE-----
MIIEJjCCAw6gAwIBAgIEEAAAxTANBgkqhkiG9w0BAQUFADBEMQswCQYDVQQGEwJE
RTEPMA0GA1UECAwGSGVzc2VuMRQwEgYDVQQKDAtwcml2YWN5aWRlYTEOMAwGA1UE
AwwFQ0EwMDEwHhcNMTUxMjMwMTEzODE1WhcNMTYxMjI5MTEzODE1WjBUMQswCQYD
VQQGEwJERTEPMA0GA1UECAwGSGVzc2VuMRQwEgYDVQQKDAtwcml2YWN5aWRlYTEe
MBwGA1UEAwwVcmVxdWVzdGVyLmxvY2FsZG9tYWluMIIBIjANBgkqhkiG9w0BAQEF
AAOCAQ8AMIIBCgKCAQEAzb4UT/rOAT9CIhsdnK/dktJ/22y3PjlDQ2sTA/EF9Ad0
vHZpKAuvGY7X/OPNxljyyn8IbVP8BwJEJMa0NEyMBP4zDkDiILoCc1r39U9jbszG
tt9UHTc5fVE2Jl+93D+oi2uirrad1iHn30G4eigqaEjKqC3t4elGXlpybbSEOIeR
/ZQRCyiExsIvKvsB+TZ6CXXRM4g8c0FbyL+UiXCh8MC5LlBTHrEXZGn0LYHgqQ0O
Mum6VYqF8RtvSXm0f4jDDT5UiJs9HziMBPPuamMr9cbbtIOqxHhBOn1L4cg+ccob
YVnqxsTKMl7J6b8SKebGw2P+oFXaevFgmE0m7fpwLQIDAQABo4IBDjCCAQowCwYD
VR0PBAQDAgWgMAkGA1UdEwQCMAAwEQYJYIZIAYb4QgEBBAQDAgZAMDMGCWCGSAGG
+EIBDQQmFiRPcGVuU1NMIEdlbmVyYXRlZCBTZXJ2ZXIgQ2VydGlmaWNhdGUwHQYD
VR0OBBYEFFM/7V0JB7Nle6tFySRbCXeACpbtMHQGA1UdIwRtMGuAFPSnwMyRRq9k
85HyJ/jIsm+KhzJzoUikRjBEMQswCQYDVQQGEwJERTEPMA0GA1UECAwGSGVzc2Vu
MRQwEgYDVQQKDAtwcml2YWN5aWRlYTEOMAwGA1UEAwwFQ0EwMDGCCQD7yOusg80S
BzATBgNVHSUEDDAKBggrBgEFBQcDATANBgkqhkiG9w0BAQUFAAOCAQEAOat/Lu7M
xKlsn2uPKSkzv02bZmWGis/t4j25piRIP3STGyITQKNqXp3nZed9zEcbJPVtUs5S
6qSb29jMXp0pcUmbqw9XtCdVaFwaISa6bra1M+wpEn01qhx4F7b7rDLi21dPZKCG
kX6Bs5Iu6K4M9GrSp6kfuzulBzot+9QMnKwFcyoLaxF3Xaaa9V+1L/ToHvttfJUg
83f5y6pGRiGDYxql+xvdCeAbAbksd16Xj6nuPdy9yLdH7HVBSO+47AMy8JLnDtob
s6xjtMLrt9ex3IJPeArDBYacXbX2IxpsBaZg1kU6htvAzZNKXaP5DKHFX4wUgfHq
wNzgGTVlx7iJUw==
-----END CERTIFICATE-----
