Certificate:
    Data:
        Version: 3 (0x2)
        Serial Number: 268435649 (0x100000c1)
    Signature Algorithm: sha1WithRSAEncryption
        Issuer: C=DE, ST=Hessen, O=privacyidea, CN=CA001
        Validity
            Not Before: Dec 30 11:34:31 2015 GMT
            Not After : Dec 29 11:34:31 2016 GMT
        Subject: C=DE, ST=Hessen, O=privacyidea, CN=requester.localdomain
        Subject Public Key Info:
            Public Key Algorithm: rsaEncryption
                Public-Key: (2048 bit)
                Modulus:
                    00:cd:be:14:4f:fa:ce:01:3f:42:22:1b:1d:9c:af:
                    dd:92:d2:7f:db:6c:b7:3e:39:43:43:6b:13:03:f1:
                    05:f4:07:74:bc:76:69:28:0b:af:19:8e:d7:fc:e3:
                    cd:c6:58:f2:ca:7f:08:6d:53:fc:07:02:44:24:c6:
                    b4:34:4c:8c:04:fe:33:0e:40:e2:20:ba:02:73:5a:
                    f7:f5:4f:63:6e:cc:c6:b6:df:54:1d:37:39:7d:51:
                    36:26:5f:bd:dc:3f:a8:8b:6b:a2:ae:b6:9d:d6:21:
                    e7:df:41:b8:7a:28:2a:68:48:ca:a8:2d:ed:e1:e9:
                    46:5e:5a:72:6d:b4:84:38:87:91:fd:94:11:0b:28:
                    84:c6:c2:2f:2a:fb:01:f9:36:7a:09:75:d1:33:88:
                    3c:73:41:5b:c8:bf:94:89:70:a1:f0:c0:b9:2e:50:
                    53:1e:b1:17:64:69:f4:2d:81:e0:a9:0d:0e:32:e9:
                    ba:55:8a:85:f1:1b:6f:49:79:b4:7f:88:c3:0d:3e:
                    54:88:9b:3d:1f:38:8c:04:f3:ee:6a:63:2b:f5:c6:
                    db:b4:83:aa:c4:78:41:3a:7d:4b:e1:c8:3e:71:ca:
                    1b:61:59:ea:c6:c4:ca:32:5e:c9:e9:bf:12:29:e6:
                    c6:c3:63:fe:a0:55:da:7a:f1:60:98:4d:26:ed:fa:
                    70:2d
                Exponent: 65537 (0x10001)
        X509v3 extensions:
            X509v3 Key Usage: 
                Digital Signature, Key Encipherment
            X509v3 Basic Constraints: 
                CA:FALSE
            Netscape Cert Type: 
                SSL Server
            Netscape Comment: 
                OpenSSL Generated Server Certificate
            X509v3 Subject Key Identifier: 
                53:3F:ED:5D:09:07:B3:65:7B:AB:45:C9:24:5B:09:77:80:0A:96:ED
            X509v3 Authority Key Identifier: 
                keyid:F4:A7:C0:CC:91:46:AF:64:F3:91:F2:27:F8:C8:B2:6F:8A:87:32:73
                DirName:/C=DE/ST=Hessen/O=privacyidea/CN=CA001
                serial:FB:C8:EB:AC:83:CD:12:07

            X509v3 Extended Key Usage: 
                TLS Web Server Authentication
    Signature Algorithm: sha1WithRSAEncryption
         4a:15:90:bc:ee:e8:8b:5e:b5:d7:90:82:70:30:bf:70:eb:f5:
         eb:d9:ca:40:19:4f:e4:63:de:24:cf:ee:0c:65:39:3f:d5:e0:
         92:46:68:79:80:d7:7d:03:8a:dd:52:8f:02:52:80:0a:ad:48:
         48:b9:88:00:c0:51:98:64:ef:e1:48:ab:31:7e:2a:1a:24:83:
         09:b2:3e:92:ba:0c:1a:72:55:b2:2c:67:0d:7d:a2:bf:f0:0f:
         dd:d8:2f:20:50:bf:20:3d:70:c9:c7:dc:ba:f8:c1:31:10:a3:
         c8:85:ac:4f:59:b7:e5:b6:7e:6b:54:fb:57:7b:cc:d5:0b:65:
         75:7b:86:1b:83:2d:ac:22:4f:76:89:c9:a1:68:a2:4a:16:92:
         07:3e:a9:ef:4a:86:d4:de:0b:6f:4c:2c:a1:6e:a7:47:21:4c:
         f6:a5:91:60:eb:a6:ff:c4:3e:37:b8:2f:8d:69:80:8f:d2:09:
         68:16:dc:7c:49:ff:48:a2:2f:65:7b:38:ca:09:73:07:41:74:
         03:9f:bd:e4:3e:cd:49:53:bf:58:b2:59:e3:6d:1e:dc:5c:46:
         21:19:09:85:46:02:76:38:fc:5a:88:78:e3:2d:63:7b:e6:4d:
         9b:48:0d:b5:51:d9:b4:ee:2a:01:14:15:19:0a:ae:9b:8a:b6:
         0a:00:d4:46
-----BEGIN CERTIFICATE-----
MIIEJjCCAw6gAwIBAgIEEAAAwTANBgkqhkiG9w0BAQUFADBEMQswCQYDVQQGEwJE
RTEPMA0GA1UECAwGSGVzc2VuMRQwEgYDVQQKDAtwcml2YWN5aWRlYTEOMAwGA1UE
AwwFQ0EwMDEwHhcNMTUxMjMwMTEzNDMxWhcNMTYxMjI5MTEzNDMxWjBUMQswCQYD
VQQGEwJERTEPMA0GA1UECAwGSGVzc2VuMRQwEgYDVQQKDAtwcml2YWN5aWRlYTEe
MBwGA1UEAwwVcmVxdWVzdGVyLmxvY2FsZG9tYWluMIIBIjANBgkqhkiG9w0BAQEF
AAOCAQ8AMIIBCgKCAQEAzb4UT/rOAT9CIhsdnK/dktJ/22y3PjlDQ2sTA/EF9Ad0
vHZpKAuvGY7X/OPNxljyyn8IbVP8BwJEJMa0NEyMBP4zDkDiILoCc1r39U9jbszG
tt9UHTc5fVE2Jl+93D+oi2uirrad1iHn30G4eigqaEjKqC3t4elGXlpybbSEOIeR
/ZQRCyiExsIvKvsB+TZ6CXXRM4g8c0FbyL+UiXCh8MC5LlBTHrEXZGn0LYHgqQ0O
Mum6VYqF8RtvSXm0f4jDDT5UiJs9HziMBPPuamMr9cbbtIOqxHhBOn1L4cg+ccob
YVnqxsTKMl7J6b8SKebGw2P+oFXaevFgmE0m7fpwLQIDAQABo4IBDjCCAQowCwYD
VR0PBAQDAgWgMAkGA1UdEwQCMAAwEQYJYIZIAYb4QgEBBAQDAgZAMDMGCWCGSAGG
+EIBDQQmFiRPcGVuU1NMIEdlbmVyYXRlZCBTZXJ2ZXIgQ2VydGlmaWNhdGUwHQYD
VR0OBBYEFFM/7V0JB7Nle6tFySRbCXeACpbtMHQGA1UdIwRtMGuAFPSnwMyRRq9k
85HyJ/jIsm+KhzJzoUikRjBEMQswCQYDVQQGEwJERTEPMA0GA1UECAwGSGVzc2Vu
MRQwEgYDVQQKDAtwcml2YWN5aWRlYTEOMAwGA1UEAwwFQ0EwMDGCCQD7yOusg80S
BzATBgNVHSUEDDAKBggrBgEFBQcDATANBgkqhkiG9w0BAQUFAAOCAQEAShWQvO7o
i16115CCcDC/cOv169nKQBlP5GPeJM/uDGU5P9XgkkZoeYDXfQOK3VKPAlKACq1I
SLmIAMBRmGTv4UirMX4qGiSDCbI+kroMGnJVsixnDX2iv/AP3dgvIFC/ID1wycfc
uvjBMRCjyIWsT1m35bZ+a1T7V3vM1QtldXuGG4MtrCJPdonJoWiiShaSBz6p70qG
1N4Lb0wsoW6nRyFM9qWRYOum/8Q+N7gvjWmAj9IJaBbcfEn/SKIvZXs4yglzB0F0
A5+95D7NSVO/WLJZ420e3FxGIRkJhUYCdjj8Woh44y1je+ZNm0gNtVHZtO4qARQV
GQqum4q2CgDURg==
-----END CERTIFICATE-----
