Certificate:
    Data:
        Version: 3 (0x2)
        Serial Number: 268435657 (0x100000c9)
    Signature Algorithm: sha1WithRSAEncryption
        Issuer: C=DE, ST=Hessen, O=privacyidea, CN=CA001
        Validity
            Not Before: Dec 29 10:09:16 2015 GMT
            Not After : Dec 28 10:09:16 2016 GMT
        Subject: CN=Steve Test/emailAddress=steve@openssl.org
        Subject Public Key Info:
            Public Key Algorithm: rsaEncryption
                Public-Key: (2048 bit)
                Modulus:
                    00:d2:81:89:20:51:48:0f:73:f4:11:32:24:d5:1f:
                    1c:fd:5c:f5:b6:e6:c5:f0:52:81:dc:d2:af:66:4a:
                    7c:93:31:61:5c:af:d1:6d:06:70:03:60:7c:72:0c:
                    88:dd:49:cd:9e:02:6c:d2:5a:d7:53:0f:f3:da:be:
                    69:64:b5:0f:0c:00:e3:b3:50:47:a3:b3:9b:ba:13:
                    50:d6:58:5a:4b:ab:39:e0:11:ca:0a:27:67:03:78:
                    22:66:6d:92:1e:1b:5c:49:ae:e6:6b:d1:8e:3b:9d:
                    06:d3:c6:ac:4d:53:43:10:ab:e8:96:c1:87:82:97:
                    99:8f:20:d3:99:12:37:31:84:e1:8a:ff:29:03:5f:
                    22:90:3e:7f:9b:e0:20:c1:ad:dc:ae:4c:39:1a:31:
                    96:17:02:8c:b2:d9:b4:0d:20:12:9b:7d:86:54:fd:
                    33:fd:c1:2a:62:46:f8:60:96:cf:6e:01:6f:22:df:
                    13:47:e7:97:ec:05:72:23:a3:62:f8:fa:ef:ac:9c:
                    72:f0:37:cb:2f:37:cf:90:a8:27:51:86:c6:d7:78:
                    08:8f:7e:25:a2:15:70:a2:fb:1c:b6:15:5e:a0:97:
                    8b:81:4c:09:28:8a:27:3b:94:bc:71:db:5b:71:37:
                    9a:2b:16:e0:6f:b5:c9:f5:4b:4f:20:ba:65:cf:af:
                    ad:ad
                Exponent: 65537 (0x10001)
        X509v3 extensions:
            X509v3 Key Usage: 
                Digital Signature, Key Encipherment
            X509v3 Basic Constraints: 
                CA:FALSE
            Netscape Cert Type: 
                SSL Server
            Netscape Comment: 
                OpenSSL Generated Server Certificate
            X509v3 Subject Key Identifier: 
                E5:25:6D:3E:AF:0D:DD:3F:4C:F2:45:19:39:D5:14:DB:7E:9C:C0:AD
            X509v3 Authority Key Identifier: 
                keyid:F4:A7:C0:CC:91:46:AF:64:F3:91:F2:27:F8:C8:B2:6F:8A:87:32:73
                DirName:/C=DE/ST=Hessen/O=privacyidea/CN=CA001
                serial:FB:C8:EB:AC:83:CD:12:07

            X509v3 Extended Key Usage: 
                TLS Web Server Authentication
    Signature Algorithm: sha1WithRSAEncryption
         31:ef:63:6d:df:a9:72:a4:35:c4:b1:bb:b1:8d:cb:e2:b8:c3:
         6e:b7:e0:b0:d4:3a:78:23:31:a8:2d:71:3b:d6:1f:88:54:7f:
         6d:e8:b8:14:bf:8d:9c:28:e2:df:22:42:e7:ef:98:e1:57:79:
         a4:6d:dd:55:90:3a:74:4c:f8:98:31:11:a5:fb:c5:06:8c:f6:
         13:bc:1c:1a:fe:e0:9c:27:4d:bc:d4:ec:2c:8a:5c:c6:f3:bd:
         3a:09:d8:d9:52:6c:0b:49:84:37:b4:03:d8:54:f8:a5:df:eb:
         05:ad:e7:70:9b:05:f0:fc:a0:78:8f:ee:b0:dd:66:0c:9d:4b:
         f8:88:eb:cc:3a:fd:cd:30:ff:b5:08:58:37:f3:aa:11:c1:89:
         09:84:73:15:52:b7:ac:62:53:87:5e:eb:8f:b1:fc:55:ba:52:
         22:c4:90:8b:8a:00:c8:d7:bb:3a:b0:ab:cf:8b:9b:00:69:19:
         ec:0c:77:fa:9f:c9:ad:e5:07:70:03:72:12:6d:bb:00:10:72:
         09:f0:c3:88:57:1e:83:5b:aa:53:12:21:be:32:de:f0:23:bf:
         a7:72:f9:ef:46:8a:f4:4d:93:15:98:95:8e:6d:de:16:13:47:
         e2:01:30:b6:b9:5b:09:a3:b1:a0:18:17:72:06:42:7d:76:69:
         d3:63:5d:03
-----BEGIN CERTIFICATE-----
MIIECTCCAvGgAwIBAgIEEAAAyTANBgkqhkiG9w0BAQUFADBEMQswCQYDVQQGEwJE
RTEPMA0GA1UECAwGSGVzc2VuMRQwEgYDVQQKDAtwcml2YWN5aWRlYTEOMAwGA1UE
AwwFQ0EwMDEwHhcNMTUxMjI5MTAwOTE2WhcNMTYxMjI4MTAwOTE2WjA3MRMwEQYD
VQQDEwpTdGV2ZSBUZXN0MSAwHgYJKoZIhvcNAQkBFhFzdGV2ZUBvcGVuc3NsLm9y
ZzCCASIwDQYJKoZIhvcNAQEBBQADggEPADCCAQoCggEBANKBiSBRSA9z9BEyJNUf
HP1c9bbmxfBSgdzSr2ZKfJMxYVyv0W0GcANgfHIMiN1JzZ4CbNJa11MP89q+aWS1
DwwA47NQR6Ozm7oTUNZYWkurOeARygonZwN4ImZtkh4bXEmu5mvRjjudBtPGrE1T
QxCr6JbBh4KXmY8g05kSNzGE4Yr/KQNfIpA+f5vgIMGt3K5MORoxlhcCjLLZtA0g
Ept9hlT9M/3BKmJG+GCWz24BbyLfE0fnl+wFciOjYvj676yccvA3yy83z5CoJ1GG
xtd4CI9+JaIVcKL7HLYVXqCXi4FMCSiKJzuUvHHbW3E3misW4G+1yfVLTyC6Zc+v
ra0CAwEAAaOCAQ4wggEKMAsGA1UdDwQEAwIFoDAJBgNVHRMEAjAAMBEGCWCGSAGG
+EIBAQQEAwIGQDAzBglghkgBhvhCAQ0EJhYkT3BlblNTTCBHZW5lcmF0ZWQgU2Vy
dmVyIENlcnRpZmljYXRlMB0GA1UdDgQWBBTlJW0+rw3dP0zyRRk51RTbfpzArTB0
BgNVHSMEbTBrgBT0p8DMkUavZPOR8if4yLJviocyc6FIpEYwRDELMAkGA1UEBhMC
REUxDzANBgNVBAgMBkhlc3NlbjEUMBIGA1UECgwLcHJpdmFjeWlkZWExDjAMBgNV
BAMMBUNBMDAxggkA+8jrrIPNEgcwEwYDVR0lBAwwCgYIKwYBBQUHAwEwDQYJKoZI
hvcNAQEFBQADggEBADHvY23fqXKkNcSxu7GNy+K4w2634LDUOngjMagtcTvWH4hU
f23ouBS/jZwo4t8iQufvmOFXeaRt3VWQOnRM+JgxEaX7xQaM9hO8HBr+4JwnTbzU
7CyKXMbzvToJ2NlSbAtJhDe0A9hU+KXf6wWt53CbBfD8oHiP7rDdZgydS/iI68w6
/c0w/7UIWDfzqhHBiQmEcxVSt6xiU4de64+x/FW6UiLEkIuKAMjXuzqwq8+LmwBp
GewMd/qfya3lB3ADchJtuwAQcgnww4hXHoNbqlMSIb4y3vAjv6dy+e9GivRNkxWY
lY5t3hYTR+IBMLa5WwmjsaAYF3IGQn12adNjXQM=
-----END CERTIFICATE-----
