Certificate:
    Data:
        Version: 3 (0x2)
        Serial Number: 268435656 (0x100000c8)
    Signature Algorithm: sha1WithRSAEncryption
        Issuer: C=DE, ST=Hessen, O=privacyidea, CN=CA001
        Validity
            Not Before: Dec 29 10:09:15 2015 GMT
            Not After : Dec 28 10:09:15 2016 GMT
        Subject: C=DE, ST=Hessen, O=privacyidea, CN=usercert
        Subject Public Key Info:
            Public Key Algorithm: rsaEncryption
                Public-Key: (2048 bit)
                Modulus:
                    00:dc:2f:d1:5f:29:97:d4:7c:c3:53:c8:30:bd:4b:
                    67:70:2c:24:6b:b8:5e:eb:21:7a:48:12:56:7c:81:
                    5c:48:75:b6:68:eb:f6:f2:98:4e:50:51:d1:7f:6c:
                    73:f3:0a:a7:ae:be:48:5e:e5:d6:e1:d9:2a:7c:32:
                    6e:4e:fd:08:f6:5a:54:49:23:73:c3:b9:07:18:d1:
                    ef:b3:ac:f8:8a:dc:94:96:a4:90:3a:8e:74:df:e6:
                    0d:37:1b:bd:5b:b7:25:1a:56:39:da:6f:91:aa:5e:
                    1c:74:f3:f9:7c:14:01:83:12:65:76:c7:bb:fe:36:
                    5b:95:e9:72:65:83:ed:3e:98:30:71:fa:87:dd:a3:
                    36:5a:30:03:2e:26:e0:61:d1:bf:02:3f:b6:06:1f:
                    4a:89:28:1c:5c:a2:ff:4e:be:94:e6:8c:e0:da:82:
                    f1:9d:29:32:48:30:73:b4:04:f6:42:1e:be:f7:e2:
                    32:32:27:3c:9d:89:2f:70:3e:85:9a:6f:5c:c5:09:
                    c0:8c:32:2f:72:22:c9:d2:95:1f:b6:ac:72:60:72:
                    b7:82:4d:6b:ce:5b:e3:00:d0:d2:2f:58:c6:e0:10:
                    e5:51:ca:4d:3b:2e:e6:7e:ab:84:d6:56:f1:93:35:
                    a0:93:64:26:81:75:2f:91:b5:16:06:38:0b:db:cc:
                    2d:07
                Exponent: 65537 (0x10001)
        X509v3 extensions:
            X509v3 Key Usage: 
                Digital Signature, Key Encipherment
            X509v3 Basic Constraints: 
                CA:FALSE
            Netscape Cert Type: 
                SSL Server
            Netscape Comment: 
                OpenSSL Generated Server Certificate
            X509v3 Subject Key Identifier: 
                FC:14:D1:F0:4B:8D:00:90:F2:F5:B8:71:9E:4E:97:C3:92:54:AD:0B
            X509v3 Authority Key Identifier: 
                keyid:F4:A7:C0:CC:91:46:AF:64:F3:91:F2:27:F8:C8:B2:6F:8A:87:32:73
                DirName:/C=DE/ST=Hessen/O=privacyidea/CN=CA001
                serial:FB:C8:EB:AC:83:CD:12:07

            X509v3 Extended Key Usage: 
                TLS Web Server Authentication
    Signature Algorithm: sha1WithRSAEncryption
         21:40:b3:01:28:af:79:78:71:2e:d1:f7:92:40:74:b2:4f:aa:
         9d:7f:76:24:e2:61:77:a0:13:3e:f0:c5:75:d4:e2:b7:f3:31:
         e8:ec:98:d3:59:21:eb:39:c4:22:0e:96:d3:ac:10:a9:91:e7:
         bf:5c:95:1e:35:6d:24:eb:d8:50:e6:1c:52:d2:14:0d:89:5e:
         87:4e:f8:72:7e:40:a4:1b:d8:a7:2b:4f:aa:40:7d:7f:3c:a3:
         27:d8:61:b5:1f:37:d9:50:26:c5:44:54:02:31:e7:e1:4a:3c:
         22:90:dd:ff:32:61:a2:c2:36:94:a1:95:d2:62:97:2e:fa:41:
         95:54:71:c9:3d:9d:44:64:07:06:de:36:b1:64:1e:f8:df:a3:
         b1:48:7e:c6:ea:69:d6:36:70:65:53:a5:a3:7b:a7:32:a3:c1:
         0a:f6:7b:f2:83:91:39:17:07:a0:de:4a:ac:6f:e8:1a:8a:bd:
         b4:eb:40:8e:a2:dc:97:4f:1c:7f:7c:59:60:24:fa:cd:6f:c5:
         17:a1:ca:b0:aa:74:d5:70:78:cb:dc:59:47:db:f0:fa:1c:1c:
         0d:5f:dc:f1:4e:e3:9d:8c:77:24:eb:0e:b6:23:3c:c7:26:00:
         d5:d7:96:f2:8d:57:d6:7e:e0:be:e8:9c:6d:54:9f:08:96:43:
         03:a4:60:7f
-----BEGIN CERTIFICATE-----
MIIEGTCCAwGgAwIBAgIEEAAAyDANBgkqhkiG9w0BAQUFADBEMQswCQYDVQQGEwJE
RTEPMA0GA1UECAwGSGVzc2VuMRQwEgYDVQQKDAtwcml2YWN5aWRlYTEOMAwGA1UE
AwwFQ0EwMDEwHhcNMTUxMjI5MTAwOTE1WhcNMTYxMjI4MTAwOTE1WjBHMQswCQYD
VQQGEwJERTEPMA0GA1UECAwGSGVzc2VuMRQwEgYDVQQKDAtwcml2YWN5aWRlYTER
MA8GA1UEAwwIdXNlcmNlcnQwggEiMA0GCSqGSIb3DQEBAQUAA4IBDwAwggEKAoIB
AQDcL9FfKZfUfMNTyDC9S2dwLCRruF7rIXpIElZ8gVxIdbZo6/bymE5QUdF/bHPz
Cqeuvkhe5dbh2Sp8Mm5O/Qj2WlRJI3PDuQcY0e+zrPiK3JSWpJA6jnTf5g03G71b
tyUaVjnab5GqXhx08/l8FAGDEmV2x7v+NluV6XJlg+0+mDBx+ofdozZaMAMuJuBh
0b8CP7YGH0qJKBxcov9OvpTmjODagvGdKTJIMHO0BPZCHr734jIyJzydiS9wPoWa
b1zFCcCMMi9yIsnSlR+2rHJgcreCTWvOW+MA0NIvWMbgEOVRyk07LuZ+q4TWVvGT
NaCTZCaBdS+RtRYGOAvbzC0HAgMBAAGjggEOMIIBCjALBgNVHQ8EBAMCBaAwCQYD
VR0TBAIwADARBglghkgBhvhCAQEEBAMCBkAwMwYJYIZIAYb4QgENBCYWJE9wZW5T
U0wgR2VuZXJhdGVkIFNlcnZlciBDZXJ0aWZpY2F0ZTAdBgNVHQ4EFgQU/BTR8EuN
AJDy9bhxnk6Xw5JUrQswdAYDVR0jBG0wa4AU9KfAzJFGr2TzkfIn+Miyb4qHMnOh
SKRGMEQxCzAJBgNVBAYTAkRFMQ8wDQYDVQQIDAZIZXNzZW4xFDASBgNVBAoMC3By
aXZhY3lpZGVhMQ4wDAYDVQQDDAVDQTAwMYIJAPvI66yDzRIHMBMGA1UdJQQMMAoG
CCsGAQUFBwMBMA0GCSqGSIb3DQEBBQUAA4IBAQAhQLMBKK95eHEu0feSQHSyT6qd
f3Yk4mF3oBM+8MV11OK38zHo7JjTWSHrOcQiDpbTrBCpkee/XJUeNW0k69hQ5hxS
0hQNiV6HTvhyfkCkG9inK0+qQH1/PKMn2GG1HzfZUCbFRFQCMefhSjwikN3/MmGi
wjaUoZXSYpcu+kGVVHHJPZ1EZAcG3jaxZB7436OxSH7G6mnWNnBlU6Wje6cyo8EK
9nvyg5E5Fweg3kqsb+gair2060COotyXTxx/fFlgJPrNb8UXocqwqnTVcHjL3FlH
2/D6HBwNX9zxTuOdjHck6w62IzzHJgDV15byjVfWfuC+6JxtVJ8IlkMDpGB/
-----END CERTIFICATE-----
