Certificate:
    Data:
        Version: 3 (0x2)
        Serial Number: 268435651 (0x100000c3)
    Signature Algorithm: sha1WithRSAEncryption
        Issuer: C=DE, ST=Hessen, O=privacyidea, CN=CA001
        Validity
            Not Before: Dec 30 11:35:58 2015 GMT
            Not After : Dec 29 11:35:58 2016 GMT
        Subject: C=DE, ST=Hessen, O=privacyidea, CN=usercert
        Subject Public Key Info:
            Public Key Algorithm: rsaEncryption
                Public-Key: (2048 bit)
                Modulus:
                    00:dc:2f:d1:5f:29:97:d4:7c:c3:53:c8:30:bd:4b:
                    67:70:2c:24:6b:b8:5e:eb:21:7a:48:12:56:7c:81:
                    5c:48:75:b6:68:eb:f6:f2:98:4e:50:51:d1:7f:6c:
                    73:f3:0a:a7:ae:be:48:5e:e5:d6:e1:d9:2a:7c:32:
                    6e:4e:fd:08:f6:5a:54:49:23:73:c3:b9:07:18:d1:
                    ef:b3:ac:f8:8a:dc:94:96:a4:90:3a:8e:74:df:e6:
                    0d:37:1b:bd:5b:b7:25:1a:56:39:da:6f:91:aa:5e:
                    1c:74:f3:f9:7c:14:01:83:12:65:76:c7:bb:fe:36:
                    5b:95:e9:72:65:83:ed:3e:98:30:71:fa:87:dd:a3:
                    36:5a:30:03:2e:26:e0:61:d1:bf:02:3f:b6:06:1f:
                    4a:89:28:1c:5c:a2:ff:4e:be:94:e6:8c:e0:da:82:
                    f1:9d:29:32:48:30:73:b4:04:f6:42:1e:be:f7:e2:
                    32:32:27:3c:9d:89:2f:70:3e:85:9a:6f:5c:c5:09:
                    c0:8c:32:2f:72:22:c9:d2:95:1f:b6:ac:72:60:72:
                    b7:82:4d:6b:ce:5b:e3:00:d0:d2:2f:58:c6:e0:10:
                    e5:51:ca:4d:3b:2e:e6:7e:ab:84:d6:56:f1:93:35:
                    a0:93:64:26:81:75:2f:91:b5:16:06:38:0b:db:cc:
                    2d:07
                Exponent: 65537 (0x10001)
        X509v3 extensions:
            X509v3 Key Usage: 
                Digital Signature, Key Encipherment
            X509v3 Basic Constraints: 
                CA:FALSE
            Netscape Cert Type: 
                SSL Server
            Netscape Comment: 
                OpenSSL Generated Server Certificate
            X509v3 Subject Key Identifier: 
                FC:14:D1:F0:4B:8D:00:90:F2:F5:B8:71:9E:4E:97:C3:92:54:AD:0B
            X509v3 Authority Key Identifier: 
                keyid:F4:A7:C0:CC:91:46:AF:64:F3:91:F2:27:F8:C8:B2:6F:8A:87:32:73
                DirName:/C=DE/ST=Hessen/O=privacyidea/CN=CA001
                serial:FB:C8:EB:AC:83:CD:12:07

            X509v3 Extended Key Usage: 
                TLS Web Server Authentication
    Signature Algorithm: sha1WithRSAEncryption
         63:83:21:df:f4:86:10:d9:7b:60:dd:92:b3:17:2e:c7:e3:cd:
         e5:f3:7e:95:8c:a8:f7:62:1a:1e:7a:8c:fc:25:a9:9f:52:8d:
         f2:89:4a:f4:0e:2a:93:2c:e1:5b:73:3b:8f:35:92:d6:74:b9:
         93:a1:54:ae:cc:b8:af:76:3f:a0:f4:df:90:1d:89:57:be:79:
         c2:25:2c:4c:33:cf:4a:fa:46:ce:ba:5a:bb:ce:7c:89:6a:5f:
         eb:9c:cd:41:6e:68:85:de:ab:b7:58:56:2d:32:07:da:93:67:
         7e:54:7d:42:ff:70:a4:3a:37:41:6a:fc:51:1b:fc:1b:8b:c2:
         0b:eb:5f:ea:ff:5d:00:e7:93:20:96:18:dc:fb:69:45:eb:7b:
         df:ae:d0:32:cb:6a:b0:74:41:d4:0a:21:0f:23:fb:ec:4c:b8:
         42:fc:30:c7:cc:1c:18:9f:69:19:bc:09:4d:9e:62:b1:c3:56:
         73:de:5f:e1:8d:db:25:d4:ac:40:d8:85:f1:d5:43:f8:2c:65:
         78:95:87:3b:22:95:3b:e8:c4:52:cb:c0:4d:a6:8e:50:9f:99:
         dd:07:73:16:3b:5b:21:c1:0b:88:c6:1c:b3:c2:0b:e1:5a:d3:
         25:de:ee:d8:53:6f:1b:f0:63:05:38:b8:35:5b:19:dc:b0:c2:
         af:ee:03:aa
-----BEGIN CERTIFICATE-----
MIIEGTCCAwGgAwIBAgIEEAAAwzANBgkqhkiG9w0BAQUFADBEMQswCQYDVQQGEwJE
RTEPMA0GA1UECAwGSGVzc2VuMRQwEgYDVQQKDAtwcml2YWN5aWRlYTEOMAwGA1UE
AwwFQ0EwMDEwHhcNMTUxMjMwMTEzNTU4WhcNMTYxMjI5MTEzNTU4WjBHMQswCQYD
VQQGEwJERTEPMA0GA1UECAwGSGVzc2VuMRQwEgYDVQQKDAtwcml2YWN5aWRlYTER
MA8GA1UEAwwIdXNlcmNlcnQwggEiMA0GCSqGSIb3DQEBAQUAA4IBDwAwggEKAoIB
AQDcL9FfKZfUfMNTyDC9S2dwLCRruF7rIXpIElZ8gVxIdbZo6/bymE5QUdF/bHPz
Cqeuvkhe5dbh2Sp8Mm5O/Qj2WlRJI3PDuQcY0e+zrPiK3JSWpJA6jnTf5g03G71b
tyUaVjnab5GqXhx08/l8FAGDEmV2x7v+NluV6XJlg+0+mDBx+ofdozZaMAMuJuBh
0b8CP7YGH0qJKBxcov9OvpTmjODagvGdKTJIMHO0BPZCHr734jIyJzydiS9wPoWa
b1zFCcCMMi9yIsnSlR+2rHJgcreCTWvOW+MA0NIvWMbgEOVRyk07LuZ+q4TWVvGT
NaCTZCaBdS+RtRYGOAvbzC0HAgMBAAGjggEOMIIBCjALBgNVHQ8EBAMCBaAwCQYD
VR0TBAIwADARBglghkgBhvhCAQEEBAMCBkAwMwYJYIZIAYb4QgENBCYWJE9wZW5T
U0wgR2VuZXJhdGVkIFNlcnZlciBDZXJ0aWZpY2F0ZTAdBgNVHQ4EFgQU/BTR8EuN
AJDy9bhxnk6Xw5JUrQswdAYDVR0jBG0wa4AU9KfAzJFGr2TzkfIn+Miyb4qHMnOh
SKRGMEQxCzAJBgNVBAYTAkRFMQ8wDQYDVQQIDAZIZXNzZW4xFDASBgNVBAoMC3By
aXZhY3lpZGVhMQ4wDAYDVQQDDAVDQTAwMYIJAPvI66yDzRIHMBMGA1UdJQQMMAoG
CCsGAQUFBwMBMA0GCSqGSIb3DQEBBQUAA4IBAQBjgyHf9IYQ2Xtg3ZKzFy7H483l
836VjKj3Yhoeeoz8JamfUo3yiUr0DiqTLOFbczuPNZLWdLmToVSuzLivdj+g9N+Q
HYlXvnnCJSxMM89K+kbOulq7znyJal/rnM1BbmiF3qu3WFYtMgfak2d+VH1C/3Ck
OjdBavxRG/wbi8IL61/q/10A55Mglhjc+2lF63vfrtAyy2qwdEHUCiEPI/vsTLhC
/DDHzBwYn2kZvAlNnmKxw1Zz3l/hjdsl1KxA2IXx1UP4LGV4lYc7IpU76MRSy8BN
po5Qn5ndB3MWO1shwQuIxhyzwgvhWtMl3u7YU28b8GMFOLg1WxncsMKv7gOq
-----END CERTIFICATE-----
