Certificate:
    Data:
        Version: 3 (0x2)
        Serial Number: 268435654 (0x100000c6)
    Signature Algorithm: sha1WithRSAEncryption
        Issuer: C=DE, ST=Hessen, O=privacyidea, CN=CA001
        Validity
            Not Before: Jan 25 16:55:07 2016 GMT
            Not After : Jan 24 16:55:07 2017 GMT
        Subject: CN=Steve Test/emailAddress=steve@openssl.org
        Subject Public Key Info:
            Public Key Algorithm: rsaEncryption
                Public-Key: (2048 bit)
                Modulus:
                    00:d2:81:89:20:51:48:0f:73:f4:11:32:24:d5:1f:
                    1c:fd:5c:f5:b6:e6:c5:f0:52:81:dc:d2:af:66:4a:
                    7c:93:31:61:5c:af:d1:6d:06:70:03:60:7c:72:0c:
                    88:dd:49:cd:9e:02:6c:d2:5a:d7:53:0f:f3:da:be:
                    69:64:b5:0f:0c:00:e3:b3:50:47:a3:b3:9b:ba:13:
                    50:d6:58:5a:4b:ab:39:e0:11:ca:0a:27:67:03:78:
                    22:66:6d:92:1e:1b:5c:49:ae:e6:6b:d1:8e:3b:9d:
                    06:d3:c6:ac:4d:53:43:10:ab:e8:96:c1:87:82:97:
                    99:8f:20:d3:99:12:37:31:84:e1:8a:ff:29:03:5f:
                    22:90:3e:7f:9b:e0:20:c1:ad:dc:ae:4c:39:1a:31:
                    96:17:02:8c:b2:d9:b4:0d:20:12:9b:7d:86:54:fd:
                    33:fd:c1:2a:62:46:f8:60:96:cf:6e:01:6f:22:df:
                    13:47:e7:97:ec:05:72:23:a3:62:f8:fa:ef:ac:9c:
                    72:f0:37:cb:2f:37:cf:90:a8:27:51:86:c6:d7:78:
                    08:8f:7e:25:a2:15:70:a2:fb:1c:b6:15:5e:a0:97:
                    8b:81:4c:09:28:8a:27:3b:94:bc:71:db:5b:71:37:
                    9a:2b:16:e0:6f:b5:c9:f5:4b:4f:20:ba:65:cf:af:
                    ad:ad
                Exponent: 65537 (0x10001)
        X509v3 extensions:
            X509v3 Key Usage: 
                Digital Signature, Key Encipherment
            X509v3 Basic Constraints: 
                CA:FALSE
            Netscape Cert Type: 
                SSL Server
            Netscape Comment: 
                OpenSSL Generated Server Certificate
            X509v3 Subject Key Identifier: 
                E5:25:6D:3E:AF:0D:DD:3F:4C:F2:45:19:39:D5:14:DB:7E:9C:C0:AD
            X509v3 Authority Key Identifier: 
                keyid:F4:A7:C0:CC:91:46:AF:64:F3:91:F2:27:F8:C8:B2:6F:8A:87:32:73
                DirName:/C=DE/ST=Hessen/O=privacyidea/CN=CA001
                serial:FB:C8:EB:AC:83:CD:12:07

            X509v3 Extended Key Usage: 
                TLS Web Server Authentication
    Signature Algorithm: sha1WithRSAEncryption
         7b:08:b7:3a:29:45:20:ec:84:4f:fc:ff:a4:41:38:ca:0e:58:
         30:52:db:3c:a7:49:03:90:e1:3c:5a:ae:27:f3:50:1f:32:80:
         1c:c3:fc:74:a0:e4:1a:6f:a1:08:ad:11:6f:08:0a:89:30:16:
         bc:27:8a:05:4c:cb:84:35:32:ce:19:8b:98:25:35:fe:75:32:
         9e:9b:60:0a:8f:5a:55:d1:21:9f:b2:1e:10:cf:ed:d6:fb:68:
         28:53:37:f2:12:46:ea:54:dc:68:52:3f:cc:34:06:a5:5e:ab:
         b9:68:55:e9:d8:61:be:ad:22:d0:ff:8e:25:af:ff:9d:4a:be:
         95:2e:36:30:34:5a:15:4e:50:b9:ff:a6:e0:dd:94:78:6d:4c:
         e6:a7:28:8b:9c:ec:89:9a:e5:8d:6a:6c:fd:c9:e0:75:ae:04:
         8e:04:2c:d4:8a:f4:30:12:26:61:57:67:4d:a2:7b:0a:54:96:
         12:45:17:4f:2a:09:a1:ba:b6:de:1b:f8:eb:af:7e:5a:b4:d6:
         d6:dd:bb:9f:9c:5d:29:e3:41:c4:10:bb:61:3c:6c:1a:2f:47:
         77:a2:ca:18:0d:4e:3f:c3:d6:02:c4:1c:b7:c3:b6:87:07:af:
         8f:33:91:22:10:dd:bc:c9:1b:86:10:fc:91:8a:cb:3d:67:6e:
         bc:3b:01:ea
-----BEGIN CERTIFICATE-----
MIIECTCCAvGgAwIBAgIEEAAAxjANBgkqhkiG9w0BAQUFADBEMQswCQYDVQQGEwJE
RTEPMA0GA1UECAwGSGVzc2VuMRQwEgYDVQQKDAtwcml2YWN5aWRlYTEOMAwGA1UE
AwwFQ0EwMDEwHhcNMTYwMTI1MTY1NTA3WhcNMTcwMTI0MTY1NTA3WjA3MRMwEQYD
VQQDEwpTdGV2ZSBUZXN0MSAwHgYJKoZIhvcNAQkBFhFzdGV2ZUBvcGVuc3NsLm9y
ZzCCASIwDQYJKoZIhvcNAQEBBQADggEPADCCAQoCggEBANKBiSBRSA9z9BEyJNUf
HP1c9bbmxfBSgdzSr2ZKfJMxYVyv0W0GcANgfHIMiN1JzZ4CbNJa11MP89q+aWS1
DwwA47NQR6Ozm7oTUNZYWkurOeARygonZwN4ImZtkh4bXEmu5mvRjjudBtPGrE1T
QxCr6JbBh4KXmY8g05kSNzGE4Yr/KQNfIpA+f5vgIMGt3K5MORoxlhcCjLLZtA0g
Ept9hlT9M/3BKmJG+GCWz24BbyLfE0fnl+wFciOjYvj676yccvA3yy83z5CoJ1GG
xtd4CI9+JaIVcKL7HLYVXqCXi4FMCSiKJzuUvHHbW3E3misW4G+1yfVLTyC6Zc+v
ra0CAwEAAaOCAQ4wggEKMAsGA1UdDwQEAwIFoDAJBgNVHRMEAjAAMBEGCWCGSAGG
+EIBAQQEAwIGQDAzBglghkgBhvhCAQ0EJhYkT3BlblNTTCBHZW5lcmF0ZWQgU2Vy
dmVyIENlcnRpZmljYXRlMB0GA1UdDgQWBBTlJW0+rw3dP0zyRRk51RTbfpzArTB0
BgNVHSMEbTBrgBT0p8DMkUavZPOR8if4yLJviocyc6FIpEYwRDELMAkGA1UEBhMC
REUxDzANBgNVBAgMBkhlc3NlbjEUMBIGA1UECgwLcHJpdmFjeWlkZWExDjAMBgNV
BAMMBUNBMDAxggkA+8jrrIPNEgcwEwYDVR0lBAwwCgYIKwYBBQUHAwEwDQYJKoZI
hvcNAQEFBQADggEBAHsItzopRSDshE/8/6RBOMoOWDBS2zynSQOQ4TxarifzUB8y
gBzD/HSg5BpvoQitEW8ICokwFrwnigVMy4Q1Ms4Zi5glNf51Mp6bYAqPWlXRIZ+y
HhDP7db7aChTN/ISRupU3GhSP8w0BqVeq7loVenYYb6tItD/jiWv/51KvpUuNjA0
WhVOULn/puDdlHhtTOanKIuc7Ima5Y1qbP3J4HWuBI4ELNSK9DASJmFXZ02iewpU
lhJFF08qCaG6tt4b+Ouvflq01tbdu5+cXSnjQcQQu2E8bBovR3eiyhgNTj/D1gLE
HLfDtocHr48zkSIQ3bzJG4YQ/JGKyz1nbrw7Aeo=
-----END CERTIFICATE-----
