Certificate:
    Data:
        Version: 3 (0x2)
        Serial Number: 268435651 (0x100000c3)
    Signature Algorithm: sha1WithRSAEncryption
        Issuer: C=DE, ST=Hessen, O=privacyidea, CN=CA001
        Validity
            Not Before: Jan 25 16:53:40 2016 GMT
            Not After : Jan 24 16:53:40 2017 GMT
        Subject: C=DE, ST=Hessen, O=privacyidea, CN=requester.localdomain
        Subject Public Key Info:
            Public Key Algorithm: rsaEncryption
                Public-Key: (2048 bit)
                Modulus:
                    00:cd:be:14:4f:fa:ce:01:3f:42:22:1b:1d:9c:af:
                    dd:92:d2:7f:db:6c:b7:3e:39:43:43:6b:13:03:f1:
                    05:f4:07:74:bc:76:69:28:0b:af:19:8e:d7:fc:e3:
                    cd:c6:58:f2:ca:7f:08:6d:53:fc:07:02:44:24:c6:
                    b4:34:4c:8c:04:fe:33:0e:40:e2:20:ba:02:73:5a:
                    f7:f5:4f:63:6e:cc:c6:b6:df:54:1d:37:39:7d:51:
                    36:26:5f:bd:dc:3f:a8:8b:6b:a2:ae:b6:9d:d6:21:
                    e7:df:41:b8:7a:28:2a:68:48:ca:a8:2d:ed:e1:e9:
                    46:5e:5a:72:6d:b4:84:38:87:91:fd:94:11:0b:28:
                    84:c6:c2:2f:2a:fb:01:f9:36:7a:09:75:d1:33:88:
                    3c:73:41:5b:c8:bf:94:89:70:a1:f0:c0:b9:2e:50:
                    53:1e:b1:17:64:69:f4:2d:81:e0:a9:0d:0e:32:e9:
                    ba:55:8a:85:f1:1b:6f:49:79:b4:7f:88:c3:0d:3e:
                    54:88:9b:3d:1f:38:8c:04:f3:ee:6a:63:2b:f5:c6:
                    db:b4:83:aa:c4:78:41:3a:7d:4b:e1:c8:3e:71:ca:
                    1b:61:59:ea:c6:c4:ca:32:5e:c9:e9:bf:12:29:e6:
                    c6:c3:63:fe:a0:55:da:7a:f1:60:98:4d:26:ed:fa:
                    70:2d
                Exponent: 65537 (0x10001)
        X509v3 extensions:
            X509v3 Key Usage: 
                Digital Signature, Key Encipherment
            X509v3 Basic Constraints: 
                CA:FALSE
            Netscape Cert Type: 
                SSL Server
            Netscape Comment: 
                OpenSSL Generated Server Certificate
            X509v3 Subject Key Identifier: 
                53:3F:ED:5D:09:07:B3:65:7B:AB:45:C9:24:5B:09:77:80:0A:96:ED
            X509v3 Authority Key Identifier: 
                keyid:F4:A7:C0:CC:91:46:AF:64:F3:91:F2:27:F8:C8:B2:6F:8A:87:32:73
                DirName:/C=DE/ST=Hessen/O=privacyidea/CN=CA001
                serial:FB:C8:EB:AC:83:CD:12:07

            X509v3 Extended Key Usage: 
                TLS Web Server Authentication
    Signature Algorithm: sha1WithRSAEncryption
         b1:fe:5f:1c:19:fd:89:4f:e7:26:4e:6e:84:d8:14:36:ef:5a:
         a8:cb:fb:0a:07:2a:80:b0:2c:6c:f9:ad:46:4e:49:67:0c:87:
         ec:29:33:3b:4e:50:f3:d3:84:62:a0:9b:36:a1:d7:d2:0c:de:
         77:ff:04:0f:96:42:ad:ba:66:64:ce:ce:40:01:26:11:cb:53:
         48:c1:74:ab:c3:ac:4d:e3:81:6c:d7:cf:07:a0:b6:e7:18:9d:
         44:34:15:4f:15:32:4f:b5:a0:be:ef:a1:1a:88:b9:5d:e1:27:
         87:82:46:b9:51:09:71:99:66:6e:16:cc:de:db:73:31:1d:8d:
         60:a6:f5:0c:6c:74:a6:3d:68:48:50:21:b8:4d:03:09:b3:be:
         3c:95:89:fb:4d:a6:48:0c:de:b0:ba:1d:a6:56:4a:5b:3e:01:
         78:48:ad:c9:7a:db:14:23:ca:42:ed:3d:c0:85:a4:4d:b9:92:
         7f:78:81:b5:ea:71:5d:fe:77:1b:02:dd:26:fd:e3:6d:c0:1e:
         53:04:63:f4:4d:f8:be:68:fd:43:3b:e2:d9:9e:82:00:8e:a1:
         3d:a8:77:0e:da:2d:a6:8d:f4:f3:23:ae:8a:17:23:a9:81:99:
         ad:36:b2:33:88:e9:68:10:d1:8d:f3:ee:87:7b:d5:15:1f:9c:
         4e:1e:90:a1
-----BEGIN CERTIFICATE-----
MIIEJjCCAw6gAwIBAgIEEAAAwzANBgkqhkiG9w0BAQUFADBEMQswCQYDVQQGEwJE
RTEPMA0GA1UECAwGSGVzc2VuMRQwEgYDVQQKDAtwcml2YWN5aWRlYTEOMAwGA1UE
AwwFQ0EwMDEwHhcNMTYwMTI1MTY1MzQwWhcNMTcwMTI0MTY1MzQwWjBUMQswCQYD
VQQGEwJERTEPMA0GA1UECAwGSGVzc2VuMRQwEgYDVQQKDAtwcml2YWN5aWRlYTEe
MBwGA1UEAwwVcmVxdWVzdGVyLmxvY2FsZG9tYWluMIIBIjANBgkqhkiG9w0BAQEF
AAOCAQ8AMIIBCgKCAQEAzb4UT/rOAT9CIhsdnK/dktJ/22y3PjlDQ2sTA/EF9Ad0
vHZpKAuvGY7X/OPNxljyyn8IbVP8BwJEJMa0NEyMBP4zDkDiILoCc1r39U9jbszG
tt9UHTc5fVE2Jl+93D+oi2uirrad1iHn30G4eigqaEjKqC3t4elGXlpybbSEOIeR
/ZQRCyiExsIvKvsB+TZ6CXXRM4g8c0FbyL+UiXCh8MC5LlBTHrEXZGn0LYHgqQ0O
Mum6VYqF8RtvSXm0f4jDDT5UiJs9HziMBPPuamMr9cbbtIOqxHhBOn1L4cg+ccob
YVnqxsTKMl7J6b8SKebGw2P+oFXaevFgmE0m7fpwLQIDAQABo4IBDjCCAQowCwYD
VR0PBAQDAgWgMAkGA1UdEwQCMAAwEQYJYIZIAYb4QgEBBAQDAgZAMDMGCWCGSAGG
+EIBDQQmFiRPcGVuU1NMIEdlbmVyYXRlZCBTZXJ2ZXIgQ2VydGlmaWNhdGUwHQYD
VR0OBBYEFFM/7V0JB7Nle6tFySRbCXeACpbtMHQGA1UdIwRtMGuAFPSnwMyRRq9k
85HyJ/jIsm+KhzJzoUikRjBEMQswCQYDVQQGEwJERTEPMA0GA1UECAwGSGVzc2Vu
MRQwEgYDVQQKDAtwcml2YWN5aWRlYTEOMAwGA1UEAwwFQ0EwMDGCCQD7yOusg80S
BzATBgNVHSUEDDAKBggrBgEFBQcDATANBgkqhkiG9w0BAQUFAAOCAQEAsf5fHBn9
iU/nJk5uhNgUNu9aqMv7CgcqgLAsbPmtRk5JZwyH7CkzO05Q89OEYqCbNqHX0gze
d/8ED5ZCrbpmZM7OQAEmEctTSMF0q8OsTeOBbNfPB6C25xidRDQVTxUyT7Wgvu+h
Goi5XeEnh4JGuVEJcZlmbhbM3ttzMR2NYKb1DGx0pj1oSFAhuE0DCbO+PJWJ+02m
SAzesLodplZKWz4BeEityXrbFCPKQu09wIWkTbmSf3iBtepxXf53GwLdJv3jbcAe
UwRj9E34vmj9Qzvi2Z6CAI6hPah3Dtotpo308yOuihcjqYGZrTayM4jpaBDRjfPu
h3vVFR+cTh6QoQ==
-----END CERTIFICATE-----
