Certificate:
    Data:
        Version: 3 (0x2)
        Serial Number: 268435660 (0x100000cc)
    Signature Algorithm: sha1WithRSAEncryption
        Issuer: C=DE, ST=Hessen, O=privacyidea, CN=CA001
        Validity
            Not Before: Jan 25 17:06:18 2016 GMT
            Not After : Jan 24 17:06:18 2017 GMT
        Subject: C=DE, ST=Hessen, O=privacyidea, CN=requester.localdomain
        Subject Public Key Info:
            Public Key Algorithm: rsaEncryption
                Public-Key: (2048 bit)
                Modulus:
                    00:cd:be:14:4f:fa:ce:01:3f:42:22:1b:1d:9c:af:
                    dd:92:d2:7f:db:6c:b7:3e:39:43:43:6b:13:03:f1:
                    05:f4:07:74:bc:76:69:28:0b:af:19:8e:d7:fc:e3:
                    cd:c6:58:f2:ca:7f:08:6d:53:fc:07:02:44:24:c6:
                    b4:34:4c:8c:04:fe:33:0e:40:e2:20:ba:02:73:5a:
                    f7:f5:4f:63:6e:cc:c6:b6:df:54:1d:37:39:7d:51:
                    36:26:5f:bd:dc:3f:a8:8b:6b:a2:ae:b6:9d:d6:21:
                    e7:df:41:b8:7a:28:2a:68:48:ca:a8:2d:ed:e1:e9:
                    46:5e:5a:72:6d:b4:84:38:87:91:fd:94:11:0b:28:
                    84:c6:c2:2f:2a:fb:01:f9:36:7a:09:75:d1:33:88:
                    3c:73:41:5b:c8:bf:94:89:70:a1:f0:c0:b9:2e:50:
                    53:1e:b1:17:64:69:f4:2d:81:e0:a9:0d:0e:32:e9:
                    ba:55:8a:85:f1:1b:6f:49:79:b4:7f:88:c3:0d:3e:
                    54:88:9b:3d:1f:38:8c:04:f3:ee:6a:63:2b:f5:c6:
                    db:b4:83:aa:c4:78:41:3a:7d:4b:e1:c8:3e:71:ca:
                    1b:61:59:ea:c6:c4:ca:32:5e:c9:e9:bf:12:29:e6:
                    c6:c3:63:fe:a0:55:da:7a:f1:60:98:4d:26:ed:fa:
                    70:2d
                Exponent: 65537 (0x10001)
        X509v3 extensions:
            X509v3 Key Usage: 
                Digital Signature, Key Encipherment
            X509v3 Basic Constraints: 
                CA:FALSE
            Netscape Cert Type: 
                SSL Server
            Netscape Comment: 
                OpenSSL Generated Server Certificate
            X509v3 Subject Key Identifier: 
                53:3F:ED:5D:09:07:B3:65:7B:AB:45:C9:24:5B:09:77:80:0A:96:ED
            X509v3 Authority Key Identifier: 
                keyid:F4:A7:C0:CC:91:46:AF:64:F3:91:F2:27:F8:C8:B2:6F:8A:87:32:73
                DirName:/C=DE/ST=Hessen/O=privacyidea/CN=CA001
                serial:FB:C8:EB:AC:83:CD:12:07

            X509v3 Extended Key Usage: 
                TLS Web Server Authentication
    Signature Algorithm: sha1WithRSAEncryption
         20:e3:3a:6e:b9:fc:0f:d2:b9:12:07:1f:97:b1:6d:6a:a8:4c:
         d6:8d:d3:60:67:68:f2:5f:eb:b4:0c:f2:f4:09:5e:73:97:06:
         e6:90:69:1c:0c:00:ed:a1:94:55:40:8f:3f:2d:e0:25:56:64:
         0e:38:f5:11:e0:72:bb:7c:90:35:d3:72:fa:8c:92:d8:80:49:
         c9:55:52:51:ab:10:83:76:a5:50:26:bb:8d:2a:09:16:d3:8a:
         61:18:13:02:01:3b:64:f9:d8:14:65:c8:58:58:b5:b0:c0:08:
         07:4a:57:82:65:88:db:c7:74:a1:72:4f:32:d4:63:dd:a8:0f:
         02:f5:9d:6c:19:ba:7b:38:64:10:66:07:07:d6:11:e8:76:52:
         51:37:ea:cb:14:09:56:45:6a:0c:49:ff:fd:1e:36:25:b3:ca:
         2f:77:04:e9:d6:72:ad:88:6f:96:1a:88:59:91:cc:0a:bd:da:
         a5:43:af:ec:b6:2e:f0:32:4f:26:23:7c:9a:15:e1:f0:bc:d5:
         ae:92:56:4e:34:29:09:0a:d9:d1:51:5c:51:c8:0d:09:fb:00:
         05:41:e7:40:e7:8c:7f:9c:e5:d4:60:58:1a:84:e8:3e:58:a3:
         8a:13:c0:f0:d7:54:d3:16:ec:0f:6c:53:9d:72:45:31:a8:dd:
         43:64:e4:30
-----BEGIN CERTIFICATE-----
MIIEJjCCAw6gAwIBAgIEEAAAzDANBgkqhkiG9w0BAQUFADBEMQswCQYDVQQGEwJE
RTEPMA0GA1UECAwGSGVzc2VuMRQwEgYDVQQKDAtwcml2YWN5aWRlYTEOMAwGA1UE
AwwFQ0EwMDEwHhcNMTYwMTI1MTcwNjE4WhcNMTcwMTI0MTcwNjE4WjBUMQswCQYD
VQQGEwJERTEPMA0GA1UECAwGSGVzc2VuMRQwEgYDVQQKDAtwcml2YWN5aWRlYTEe
MBwGA1UEAwwVcmVxdWVzdGVyLmxvY2FsZG9tYWluMIIBIjANBgkqhkiG9w0BAQEF
AAOCAQ8AMIIBCgKCAQEAzb4UT/rOAT9CIhsdnK/dktJ/22y3PjlDQ2sTA/EF9Ad0
vHZpKAuvGY7X/OPNxljyyn8IbVP8BwJEJMa0NEyMBP4zDkDiILoCc1r39U9jbszG
tt9UHTc5fVE2Jl+93D+oi2uirrad1iHn30G4eigqaEjKqC3t4elGXlpybbSEOIeR
/ZQRCyiExsIvKvsB+TZ6CXXRM4g8c0FbyL+UiXCh8MC5LlBTHrEXZGn0LYHgqQ0O
Mum6VYqF8RtvSXm0f4jDDT5UiJs9HziMBPPuamMr9cbbtIOqxHhBOn1L4cg+ccob
YVnqxsTKMl7J6b8SKebGw2P+oFXaevFgmE0m7fpwLQIDAQABo4IBDjCCAQowCwYD
VR0PBAQDAgWgMAkGA1UdEwQCMAAwEQYJYIZIAYb4QgEBBAQDAgZAMDMGCWCGSAGG
+EIBDQQmFiRPcGVuU1NMIEdlbmVyYXRlZCBTZXJ2ZXIgQ2VydGlmaWNhdGUwHQYD
VR0OBBYEFFM/7V0JB7Nle6tFySRbCXeACpbtMHQGA1UdIwRtMGuAFPSnwMyRRq9k
85HyJ/jIsm+KhzJzoUikRjBEMQswCQYDVQQGEwJERTEPMA0GA1UECAwGSGVzc2Vu
MRQwEgYDVQQKDAtwcml2YWN5aWRlYTEOMAwGA1UEAwwFQ0EwMDGCCQD7yOusg80S
BzATBgNVHSUEDDAKBggrBgEFBQcDATANBgkqhkiG9w0BAQUFAAOCAQEAIOM6brn8
D9K5Egcfl7FtaqhM1o3TYGdo8l/rtAzy9Alec5cG5pBpHAwA7aGUVUCPPy3gJVZk
Djj1EeByu3yQNdNy+oyS2IBJyVVSUasQg3alUCa7jSoJFtOKYRgTAgE7ZPnYFGXI
WFi1sMAIB0pXgmWI28d0oXJPMtRj3agPAvWdbBm6ezhkEGYHB9YR6HZSUTfqyxQJ
VkVqDEn//R42JbPKL3cE6dZyrYhvlhqIWZHMCr3apUOv7LYu8DJPJiN8mhXh8LzV
rpJWTjQpCQrZ0VFcUcgNCfsABUHnQOeMf5zl1GBYGoToPlijihPA8NdU0xbsD2xT
nXJFMajdQ2TkMA==
-----END CERTIFICATE-----
