Certificate:
    Data:
        Version: 3 (0x2)
        Serial Number: 268435653 (0x100000c5)
    Signature Algorithm: sha1WithRSAEncryption
        Issuer: C=DE, ST=Hessen, O=privacyidea, CN=CA001
        Validity
            Not Before: Jan 25 16:55:07 2016 GMT
            Not After : Jan 24 16:55:07 2017 GMT
        Subject: C=DE, ST=Hessen, O=privacyidea, CN=usercert
        Subject Public Key Info:
            Public Key Algorithm: rsaEncryption
                Public-Key: (2048 bit)
                Modulus:
                    00:dc:2f:d1:5f:29:97:d4:7c:c3:53:c8:30:bd:4b:
                    67:70:2c:24:6b:b8:5e:eb:21:7a:48:12:56:7c:81:
                    5c:48:75:b6:68:eb:f6:f2:98:4e:50:51:d1:7f:6c:
                    73:f3:0a:a7:ae:be:48:5e:e5:d6:e1:d9:2a:7c:32:
                    6e:4e:fd:08:f6:5a:54:49:23:73:c3:b9:07:18:d1:
                    ef:b3:ac:f8:8a:dc:94:96:a4:90:3a:8e:74:df:e6:
                    0d:37:1b:bd:5b:b7:25:1a:56:39:da:6f:91:aa:5e:
                    1c:74:f3:f9:7c:14:01:83:12:65:76:c7:bb:fe:36:
                    5b:95:e9:72:65:83:ed:3e:98:30:71:fa:87:dd:a3:
                    36:5a:30:03:2e:26:e0:61:d1:bf:02:3f:b6:06:1f:
                    4a:89:28:1c:5c:a2:ff:4e:be:94:e6:8c:e0:da:82:
                    f1:9d:29:32:48:30:73:b4:04:f6:42:1e:be:f7:e2:
                    32:32:27:3c:9d:89:2f:70:3e:85:9a:6f:5c:c5:09:
                    c0:8c:32:2f:72:22:c9:d2:95:1f:b6:ac:72:60:72:
                    b7:82:4d:6b:ce:5b:e3:00:d0:d2:2f:58:c6:e0:10:
                    e5:51:ca:4d:3b:2e:e6:7e:ab:84:d6:56:f1:93:35:
                    a0:93:64:26:81:75:2f:91:b5:16:06:38:0b:db:cc:
                    2d:07
                Exponent: 65537 (0x10001)
        X509v3 extensions:
            X509v3 Key Usage: 
                Digital Signature, Key Encipherment
            X509v3 Basic Constraints: 
                CA:FALSE
            Netscape Cert Type: 
                SSL Server
            Netscape Comment: 
                OpenSSL Generated Server Certificate
            X509v3 Subject Key Identifier: 
                FC:14:D1:F0:4B:8D:00:90:F2:F5:B8:71:9E:4E:97:C3:92:54:AD:0B
            X509v3 Authority Key Identifier: 
                keyid:F4:A7:C0:CC:91:46:AF:64:F3:91:F2:27:F8:C8:B2:6F:8A:87:32:73
                DirName:/C=DE/ST=Hessen/O=privacyidea/CN=CA001
                serial:FB:C8:EB:AC:83:CD:12:07

            X509v3 Extended Key Usage: 
                TLS Web Server Authentication
    Signature Algorithm: sha1WithRSAEncryption
         bb:6f:0c:a2:a9:56:4c:f7:f5:2e:12:cd:94:5e:81:0f:da:5c:
         b3:e3:79:90:e8:dc:5c:66:de:a7:68:7a:b6:a1:9c:c4:7e:05:
         40:7d:d6:3b:0c:0c:94:08:4c:05:2b:17:51:b2:f9:03:a1:57:
         78:25:18:19:bc:7b:e0:b3:76:5d:8e:72:35:e6:4e:8d:ed:6a:
         57:d8:3e:27:94:7d:7b:23:22:66:4f:db:dc:51:67:e9:5b:42:
         52:9b:a3:ee:35:e0:81:e2:2e:3d:8a:f1:1b:41:40:04:54:08:
         a2:34:70:cf:5c:9e:22:6e:f7:e8:a8:20:50:a6:e5:cb:27:ad:
         36:91:b9:8d:cd:09:5b:d8:67:68:11:b0:22:f9:b2:fd:db:9e:
         50:ed:57:64:bb:f6:29:d1:1a:43:4d:e3:e5:d3:76:86:c3:b0:
         58:8c:80:7d:13:68:f3:4f:99:54:ed:0e:2a:d4:d8:c6:70:a5:
         23:42:af:23:0f:cd:d4:18:02:8e:b8:52:43:a7:18:6e:4b:15:
         69:ef:0d:0c:6a:ff:1f:a5:9f:bf:91:9b:2c:aa:ae:2c:12:4f:
         76:7d:53:f4:d8:32:8a:dd:f5:0d:d1:1e:2e:c9:45:a4:01:f9:
         a8:79:1b:00:bd:bb:a4:6a:e2:94:45:6c:8f:35:89:b2:0c:14:
         18:36:fe:52
-----BEGIN CERTIFICATE-----
MIIEGTCCAwGgAwIBAgIEEAAAxTANBgkqhkiG9w0BAQUFADBEMQswCQYDVQQGEwJE
RTEPMA0GA1UECAwGSGVzc2VuMRQwEgYDVQQKDAtwcml2YWN5aWRlYTEOMAwGA1UE
AwwFQ0EwMDEwHhcNMTYwMTI1MTY1NTA3WhcNMTcwMTI0MTY1NTA3WjBHMQswCQYD
VQQGEwJERTEPMA0GA1UECAwGSGVzc2VuMRQwEgYDVQQKDAtwcml2YWN5aWRlYTER
MA8GA1UEAwwIdXNlcmNlcnQwggEiMA0GCSqGSIb3DQEBAQUAA4IBDwAwggEKAoIB
AQDcL9FfKZfUfMNTyDC9S2dwLCRruF7rIXpIElZ8gVxIdbZo6/bymE5QUdF/bHPz
Cqeuvkhe5dbh2Sp8Mm5O/Qj2WlRJI3PDuQcY0e+zrPiK3JSWpJA6jnTf5g03G71b
tyUaVjnab5GqXhx08/l8FAGDEmV2x7v+NluV6XJlg+0+mDBx+ofdozZaMAMuJuBh
0b8CP7YGH0qJKBxcov9OvpTmjODagvGdKTJIMHO0BPZCHr734jIyJzydiS9wPoWa
b1zFCcCMMi9yIsnSlR+2rHJgcreCTWvOW+MA0NIvWMbgEOVRyk07LuZ+q4TWVvGT
NaCTZCaBdS+RtRYGOAvbzC0HAgMBAAGjggEOMIIBCjALBgNVHQ8EBAMCBaAwCQYD
VR0TBAIwADARBglghkgBhvhCAQEEBAMCBkAwMwYJYIZIAYb4QgENBCYWJE9wZW5T
U0wgR2VuZXJhdGVkIFNlcnZlciBDZXJ0aWZpY2F0ZTAdBgNVHQ4EFgQU/BTR8EuN
AJDy9bhxnk6Xw5JUrQswdAYDVR0jBG0wa4AU9KfAzJFGr2TzkfIn+Miyb4qHMnOh
SKRGMEQxCzAJBgNVBAYTAkRFMQ8wDQYDVQQIDAZIZXNzZW4xFDASBgNVBAoMC3By
aXZhY3lpZGVhMQ4wDAYDVQQDDAVDQTAwMYIJAPvI66yDzRIHMBMGA1UdJQQMMAoG
CCsGAQUFBwMBMA0GCSqGSIb3DQEBBQUAA4IBAQC7bwyiqVZM9/UuEs2UXoEP2lyz
43mQ6NxcZt6naHq2oZzEfgVAfdY7DAyUCEwFKxdRsvkDoVd4JRgZvHvgs3ZdjnI1
5k6N7WpX2D4nlH17IyJmT9vcUWfpW0JSm6PuNeCB4i49ivEbQUAEVAiiNHDPXJ4i
bvfoqCBQpuXLJ602kbmNzQlb2GdoEbAi+bL9255Q7Vdku/Yp0RpDTePl03aGw7BY
jIB9E2jzT5lU7Q4q1NjGcKUjQq8jD83UGAKOuFJDpxhuSxVp7w0Mav8fpZ+/kZss
qq4sEk92fVP02DKK3fUN0R4uyUWkAfmoeRsAvbukauKURWyPNYmyDBQYNv5S
-----END CERTIFICATE-----
