Certificate:
    Data:
        Version: 3 (0x2)
        Serial Number: 268435656 (0x100000c8)
    Signature Algorithm: sha1WithRSAEncryption
        Issuer: C=DE, ST=Hessen, O=privacyidea, CN=CA001
        Validity
            Not Before: Jan 25 17:02:17 2016 GMT
            Not After : Jan 24 17:02:17 2017 GMT
        Subject: C=DE, ST=Hessen, O=privacyidea, CN=requester.localdomain
        Subject Public Key Info:
            Public Key Algorithm: rsaEncryption
                Public-Key: (2048 bit)
                Modulus:
                    00:cd:be:14:4f:fa:ce:01:3f:42:22:1b:1d:9c:af:
                    dd:92:d2:7f:db:6c:b7:3e:39:43:43:6b:13:03:f1:
                    05:f4:07:74:bc:76:69:28:0b:af:19:8e:d7:fc:e3:
                    cd:c6:58:f2:ca:7f:08:6d:53:fc:07:02:44:24:c6:
                    b4:34:4c:8c:04:fe:33:0e:40:e2:20:ba:02:73:5a:
                    f7:f5:4f:63:6e:cc:c6:b6:df:54:1d:37:39:7d:51:
                    36:26:5f:bd:dc:3f:a8:8b:6b:a2:ae:b6:9d:d6:21:
                    e7:df:41:b8:7a:28:2a:68:48:ca:a8:2d:ed:e1:e9:
                    46:5e:5a:72:6d:b4:84:38:87:91:fd:94:11:0b:28:
                    84:c6:c2:2f:2a:fb:01:f9:36:7a:09:75:d1:33:88:
                    3c:73:41:5b:c8:bf:94:89:70:a1:f0:c0:b9:2e:50:
                    53:1e:b1:17:64:69:f4:2d:81:e0:a9:0d:0e:32:e9:
                    ba:55:8a:85:f1:1b:6f:49:79:b4:7f:88:c3:0d:3e:
                    54:88:9b:3d:1f:38:8c:04:f3:ee:6a:63:2b:f5:c6:
                    db:b4:83:aa:c4:78:41:3a:7d:4b:e1:c8:3e:71:ca:
                    1b:61:59:ea:c6:c4:ca:32:5e:c9:e9:bf:12:29:e6:
                    c6:c3:63:fe:a0:55:da:7a:f1:60:98:4d:26:ed:fa:
                    70:2d
                Exponent: 65537 (0x10001)
        X509v3 extensions:
            X509v3 Key Usage: 
                Digital Signature, Key Encipherment
            X509v3 Basic Constraints: 
                CA:FALSE
            Netscape Cert Type: 
                SSL Server
            Netscape Comment: 
                OpenSSL Generated Server Certificate
            X509v3 Subject Key Identifier: 
                53:3F:ED:5D:09:07:B3:65:7B:AB:45:C9:24:5B:09:77:80:0A:96:ED
            X509v3 Authority Key Identifier: 
                keyid:F4:A7:C0:CC:91:46:AF:64:F3:91:F2:27:F8:C8:B2:6F:8A:87:32:73
                DirName:/C=DE/ST=Hessen/O=privacyidea/CN=CA001
                serial:FB:C8:EB:AC:83:CD:12:07

            X509v3 Extended Key Usage: 
                TLS Web Server Authentication
    Signature Algorithm: sha1WithRSAEncryption
         1d:60:6d:22:12:6b:23:79:ca:72:d7:66:3d:41:93:6e:b5:0d:
         07:54:73:48:11:90:e2:1c:73:fc:21:dc:42:b4:d0:2a:ab:d5:
         39:ce:e4:5b:89:12:c3:e7:aa:1f:cf:45:10:86:19:d7:2e:24:
         24:27:35:52:b2:8c:5c:3a:e7:73:d6:38:0d:2b:be:e6:6c:12:
         b3:aa:01:05:68:55:2d:d3:11:43:64:d2:09:49:aa:9b:40:4b:
         8f:73:bd:b6:a9:43:b8:06:05:9e:0d:68:f2:b6:6e:37:3a:f0:
         4c:c8:f8:41:a3:49:89:e7:de:3b:07:01:13:9a:32:dd:c9:ec:
         c5:66:a5:3b:72:0c:5d:76:74:1f:84:fa:c8:d3:4a:68:7a:ac:
         02:94:16:ad:40:6e:dc:06:e2:8b:91:91:e5:1e:ce:e8:aa:13:
         87:31:8a:c2:bf:d1:1a:bb:03:c2:31:c1:be:29:39:bd:14:64:
         90:de:2f:e5:03:88:2b:08:8b:f9:1b:23:b9:36:9a:04:49:72:
         96:58:ba:ee:e9:88:43:c2:8e:7c:17:1a:08:1d:63:3f:4e:52:
         93:9a:69:e6:6e:3d:e1:d3:d2:0a:5d:8c:ca:a4:df:1b:49:9f:
         fd:d8:31:ce:09:ff:06:bf:cc:9a:92:86:78:78:5c:a2:0d:d4:
         35:33:36:ca
-----BEGIN CERTIFICATE-----
MIIEJjCCAw6gAwIBAgIEEAAAyDANBgkqhkiG9w0BAQUFADBEMQswCQYDVQQGEwJE
RTEPMA0GA1UECAwGSGVzc2VuMRQwEgYDVQQKDAtwcml2YWN5aWRlYTEOMAwGA1UE
AwwFQ0EwMDEwHhcNMTYwMTI1MTcwMjE3WhcNMTcwMTI0MTcwMjE3WjBUMQswCQYD
VQQGEwJERTEPMA0GA1UECAwGSGVzc2VuMRQwEgYDVQQKDAtwcml2YWN5aWRlYTEe
MBwGA1UEAwwVcmVxdWVzdGVyLmxvY2FsZG9tYWluMIIBIjANBgkqhkiG9w0BAQEF
AAOCAQ8AMIIBCgKCAQEAzb4UT/rOAT9CIhsdnK/dktJ/22y3PjlDQ2sTA/EF9Ad0
vHZpKAuvGY7X/OPNxljyyn8IbVP8BwJEJMa0NEyMBP4zDkDiILoCc1r39U9jbszG
tt9UHTc5fVE2Jl+93D+oi2uirrad1iHn30G4eigqaEjKqC3t4elGXlpybbSEOIeR
/ZQRCyiExsIvKvsB+TZ6CXXRM4g8c0FbyL+UiXCh8MC5LlBTHrEXZGn0LYHgqQ0O
Mum6VYqF8RtvSXm0f4jDDT5UiJs9HziMBPPuamMr9cbbtIOqxHhBOn1L4cg+ccob
YVnqxsTKMl7J6b8SKebGw2P+oFXaevFgmE0m7fpwLQIDAQABo4IBDjCCAQowCwYD
VR0PBAQDAgWgMAkGA1UdEwQCMAAwEQYJYIZIAYb4QgEBBAQDAgZAMDMGCWCGSAGG
+EIBDQQmFiRPcGVuU1NMIEdlbmVyYXRlZCBTZXJ2ZXIgQ2VydGlmaWNhdGUwHQYD
VR0OBBYEFFM/7V0JB7Nle6tFySRbCXeACpbtMHQGA1UdIwRtMGuAFPSnwMyRRq9k
85HyJ/jIsm+KhzJzoUikRjBEMQswCQYDVQQGEwJERTEPMA0GA1UECAwGSGVzc2Vu
MRQwEgYDVQQKDAtwcml2YWN5aWRlYTEOMAwGA1UEAwwFQ0EwMDGCCQD7yOusg80S
BzATBgNVHSUEDDAKBggrBgEFBQcDATANBgkqhkiG9w0BAQUFAAOCAQEAHWBtIhJr
I3nKctdmPUGTbrUNB1RzSBGQ4hxz/CHcQrTQKqvVOc7kW4kSw+eqH89FEIYZ1y4k
JCc1UrKMXDrnc9Y4DSu+5mwSs6oBBWhVLdMRQ2TSCUmqm0BLj3O9tqlDuAYFng1o
8rZuNzrwTMj4QaNJiefeOwcBE5oy3cnsxWalO3IMXXZ0H4T6yNNKaHqsApQWrUBu
3Abii5GR5R7O6KoThzGKwr/RGrsDwjHBvik5vRRkkN4v5QOIKwiL+RsjuTaaBEly
lli67umIQ8KOfBcaCB1jP05Sk5pp5m494dPSCl2MyqTfG0mf/dgxzgn/Br/MmpKG
eHhcog3UNTM2yg==
-----END CERTIFICATE-----
