Certificate:
    Data:
        Version: 3 (0x2)
        Serial Number: 268435663 (0x100000cf)
    Signature Algorithm: sha1WithRSAEncryption
        Issuer: C=DE, ST=Hessen, O=privacyidea, CN=CA001
        Validity
            Not Before: Jan 25 18:18:52 2016 GMT
            Not After : Jan 24 18:18:52 2017 GMT
        Subject: C=DE, ST=Hessen, O=privacyidea, CN=requester.localdomain
        Subject Public Key Info:
            Public Key Algorithm: rsaEncryption
                Public-Key: (2048 bit)
                Modulus:
                    00:cd:be:14:4f:fa:ce:01:3f:42:22:1b:1d:9c:af:
                    dd:92:d2:7f:db:6c:b7:3e:39:43:43:6b:13:03:f1:
                    05:f4:07:74:bc:76:69:28:0b:af:19:8e:d7:fc:e3:
                    cd:c6:58:f2:ca:7f:08:6d:53:fc:07:02:44:24:c6:
                    b4:34:4c:8c:04:fe:33:0e:40:e2:20:ba:02:73:5a:
                    f7:f5:4f:63:6e:cc:c6:b6:df:54:1d:37:39:7d:51:
                    36:26:5f:bd:dc:3f:a8:8b:6b:a2:ae:b6:9d:d6:21:
                    e7:df:41:b8:7a:28:2a:68:48:ca:a8:2d:ed:e1:e9:
                    46:5e:5a:72:6d:b4:84:38:87:91:fd:94:11:0b:28:
                    84:c6:c2:2f:2a:fb:01:f9:36:7a:09:75:d1:33:88:
                    3c:73:41:5b:c8:bf:94:89:70:a1:f0:c0:b9:2e:50:
                    53:1e:b1:17:64:69:f4:2d:81:e0:a9:0d:0e:32:e9:
                    ba:55:8a:85:f1:1b:6f:49:79:b4:7f:88:c3:0d:3e:
                    54:88:9b:3d:1f:38:8c:04:f3:ee:6a:63:2b:f5:c6:
                    db:b4:83:aa:c4:78:41:3a:7d:4b:e1:c8:3e:71:ca:
                    1b:61:59:ea:c6:c4:ca:32:5e:c9:e9:bf:12:29:e6:
                    c6:c3:63:fe:a0:55:da:7a:f1:60:98:4d:26:ed:fa:
                    70:2d
                Exponent: 65537 (0x10001)
        X509v3 extensions:
            X509v3 Key Usage: 
                Digital Signature, Key Encipherment
            X509v3 Basic Constraints: 
                CA:FALSE
            Netscape Cert Type: 
                SSL Server
            Netscape Comment: 
                OpenSSL Generated Server Certificate
            X509v3 Subject Key Identifier: 
                53:3F:ED:5D:09:07:B3:65:7B:AB:45:C9:24:5B:09:77:80:0A:96:ED
            X509v3 Authority Key Identifier: 
                keyid:F4:A7:C0:CC:91:46:AF:64:F3:91:F2:27:F8:C8:B2:6F:8A:87:32:73
                DirName:/C=DE/ST=Hessen/O=privacyidea/CN=CA001
                serial:FB:C8:EB:AC:83:CD:12:07

            X509v3 Extended Key Usage: 
                TLS Web Server Authentication
    Signature Algorithm: sha1WithRSAEncryption
         83:f5:80:c1:9f:5a:7f:9b:de:44:2c:f6:94:c4:c6:78:15:24:
         03:79:6f:f3:c1:58:7c:5c:d1:74:e7:15:4d:60:33:1e:df:7e:
         7d:aa:60:76:6d:d5:fd:09:ad:c8:e1:ac:f4:cf:5d:f7:11:0f:
         4c:06:a0:3b:51:1c:01:20:62:ab:66:3d:6d:f1:5f:5f:61:0f:
         53:06:a8:43:1f:2b:3a:7f:43:f5:72:32:dd:90:73:3b:26:ef:
         a3:66:4d:bf:27:44:13:eb:84:61:f1:23:e7:b0:58:8c:d7:70:
         b6:a6:a2:72:97:7f:e2:2d:0f:d5:a7:05:01:ce:7d:e5:39:af:
         85:a5:b7:5f:79:c3:51:d8:be:65:ee:61:1b:d7:4f:c3:6d:87:
         b1:b6:e6:9f:11:21:90:cf:58:b0:ab:b5:23:90:8d:27:c8:4b:
         b4:5d:ea:03:cf:a1:86:1d:be:eb:66:58:a6:95:2e:71:ba:e9:
         74:ed:44:15:25:d6:97:d8:3b:14:bf:0e:f6:92:13:06:05:6b:
         a3:fa:96:df:2e:db:4e:38:64:e2:4a:83:6c:9c:7d:3b:08:37:
         41:15:75:00:e1:c4:5a:83:da:4a:24:0c:e8:06:fc:e3:25:16:
         dc:37:84:3e:46:4a:f0:0d:e0:19:d5:78:97:9d:b5:af:75:3a:
         d7:02:90:01
-----BEGIN CERTIFICATE-----
MIIEJjCCAw6gAwIBAgIEEAAAzzANBgkqhkiG9w0BAQUFADBEMQswCQYDVQQGEwJE
RTEPMA0GA1UECAwGSGVzc2VuMRQwEgYDVQQKDAtwcml2YWN5aWRlYTEOMAwGA1UE
AwwFQ0EwMDEwHhcNMTYwMTI1MTgxODUyWhcNMTcwMTI0MTgxODUyWjBUMQswCQYD
VQQGEwJERTEPMA0GA1UECAwGSGVzc2VuMRQwEgYDVQQKDAtwcml2YWN5aWRlYTEe
MBwGA1UEAwwVcmVxdWVzdGVyLmxvY2FsZG9tYWluMIIBIjANBgkqhkiG9w0BAQEF
AAOCAQ8AMIIBCgKCAQEAzb4UT/rOAT9CIhsdnK/dktJ/22y3PjlDQ2sTA/EF9Ad0
vHZpKAuvGY7X/OPNxljyyn8IbVP8BwJEJMa0NEyMBP4zDkDiILoCc1r39U9jbszG
tt9UHTc5fVE2Jl+93D+oi2uirrad1iHn30G4eigqaEjKqC3t4elGXlpybbSEOIeR
/ZQRCyiExsIvKvsB+TZ6CXXRM4g8c0FbyL+UiXCh8MC5LlBTHrEXZGn0LYHgqQ0O
Mum6VYqF8RtvSXm0f4jDDT5UiJs9HziMBPPuamMr9cbbtIOqxHhBOn1L4cg+ccob
YVnqxsTKMl7J6b8SKebGw2P+oFXaevFgmE0m7fpwLQIDAQABo4IBDjCCAQowCwYD
VR0PBAQDAgWgMAkGA1UdEwQCMAAwEQYJYIZIAYb4QgEBBAQDAgZAMDMGCWCGSAGG
+EIBDQQmFiRPcGVuU1NMIEdlbmVyYXRlZCBTZXJ2ZXIgQ2VydGlmaWNhdGUwHQYD
VR0OBBYEFFM/7V0JB7Nle6tFySRbCXeACpbtMHQGA1UdIwRtMGuAFPSnwMyRRq9k
85HyJ/jIsm+KhzJzoUikRjBEMQswCQYDVQQGEwJERTEPMA0GA1UECAwGSGVzc2Vu
MRQwEgYDVQQKDAtwcml2YWN5aWRlYTEOMAwGA1UEAwwFQ0EwMDGCCQD7yOusg80S
BzATBgNVHSUEDDAKBggrBgEFBQcDATANBgkqhkiG9w0BAQUFAAOCAQEAg/WAwZ9a
f5veRCz2lMTGeBUkA3lv88FYfFzRdOcVTWAzHt9+fapgdm3V/QmtyOGs9M9d9xEP
TAagO1EcASBiq2Y9bfFfX2EPUwaoQx8rOn9D9XIy3ZBzOybvo2ZNvydEE+uEYfEj
57BYjNdwtqaicpd/4i0P1acFAc595TmvhaW3X3nDUdi+Ze5hG9dPw22HsbbmnxEh
kM9YsKu1I5CNJ8hLtF3qA8+hhh2+62ZYppUucbrpdO1EFSXWl9g7FL8O9pITBgVr
o/qW3y7bTjhk4kqDbJx9Owg3QRV1AOHEWoPaSiQM6Ab84yUW3DeEPkZK8A3gGdV4
l521r3U61wKQAQ==
-----END CERTIFICATE-----
