Certificate:
    Data:
        Version: 3 (0x2)
        Serial Number: 268435665 (0x100000d1)
    Signature Algorithm: sha1WithRSAEncryption
        Issuer: C=DE, ST=Hessen, O=privacyidea, CN=CA001
        Validity
            Not Before: Jan 25 18:18:52 2016 GMT
            Not After : Jan 24 18:18:52 2017 GMT
        Subject: CN=Steve Test/emailAddress=steve@openssl.org
        Subject Public Key Info:
            Public Key Algorithm: rsaEncryption
                Public-Key: (2048 bit)
                Modulus:
                    00:d2:81:89:20:51:48:0f:73:f4:11:32:24:d5:1f:
                    1c:fd:5c:f5:b6:e6:c5:f0:52:81:dc:d2:af:66:4a:
                    7c:93:31:61:5c:af:d1:6d:06:70:03:60:7c:72:0c:
                    88:dd:49:cd:9e:02:6c:d2:5a:d7:53:0f:f3:da:be:
                    69:64:b5:0f:0c:00:e3:b3:50:47:a3:b3:9b:ba:13:
                    50:d6:58:5a:4b:ab:39:e0:11:ca:0a:27:67:03:78:
                    22:66:6d:92:1e:1b:5c:49:ae:e6:6b:d1:8e:3b:9d:
                    06:d3:c6:ac:4d:53:43:10:ab:e8:96:c1:87:82:97:
                    99:8f:20:d3:99:12:37:31:84:e1:8a:ff:29:03:5f:
                    22:90:3e:7f:9b:e0:20:c1:ad:dc:ae:4c:39:1a:31:
                    96:17:02:8c:b2:d9:b4:0d:20:12:9b:7d:86:54:fd:
                    33:fd:c1:2a:62:46:f8:60:96:cf:6e:01:6f:22:df:
                    13:47:e7:97:ec:05:72:23:a3:62:f8:fa:ef:ac:9c:
                    72:f0:37:cb:2f:37:cf:90:a8:27:51:86:c6:d7:78:
                    08:8f:7e:25:a2:15:70:a2:fb:1c:b6:15:5e:a0:97:
                    8b:81:4c:09:28:8a:27:3b:94:bc:71:db:5b:71:37:
                    9a:2b:16:e0:6f:b5:c9:f5:4b:4f:20:ba:65:cf:af:
                    ad:ad
                Exponent: 65537 (0x10001)
        X509v3 extensions:
            X509v3 Key Usage: 
                Digital Signature, Key Encipherment
            X509v3 Basic Constraints: 
                CA:FALSE
            Netscape Cert Type: 
                SSL Server
            Netscape Comment: 
                OpenSSL Generated Server Certificate
            X509v3 Subject Key Identifier: 
                E5:25:6D:3E:AF:0D:DD:3F:4C:F2:45:19:39:D5:14:DB:7E:9C:C0:AD
            X509v3 Authority Key Identifier: 
                keyid:F4:A7:C0:CC:91:46:AF:64:F3:91:F2:27:F8:C8:B2:6F:8A:87:32:73
                DirName:/C=DE/ST=Hessen/O=privacyidea/CN=CA001
                serial:FB:C8:EB:AC:83:CD:12:07

            X509v3 Extended Key Usage: 
                TLS Web Server Authentication
    Signature Algorithm: sha1WithRSAEncryption
         b4:df:59:0f:ab:68:85:59:a3:32:fa:93:89:f4:ac:03:33:a7:
         17:17:88:a9:bb:01:47:68:57:96:59:43:19:03:a0:3f:32:3b:
         4d:79:66:34:72:23:bd:41:50:82:91:01:4f:fb:6d:62:35:9a:
         97:61:89:dc:bc:4b:f3:a3:96:a2:ed:e3:c9:8d:bb:ae:a4:a9:
         23:62:c2:26:15:c3:7b:f2:11:3a:aa:41:70:91:a5:22:e0:98:
         e7:19:e7:27:18:2f:06:f9:1d:63:6b:8b:26:b0:72:32:26:6c:
         e8:33:1d:39:cb:0c:14:87:c6:bb:59:e6:50:49:04:4e:d6:03:
         73:87:fa:00:60:10:8a:89:02:3b:b9:cf:2e:66:71:60:1e:c2:
         c2:4d:03:0a:99:9d:ca:66:81:3f:51:c4:50:09:c1:56:75:ff:
         8a:5c:13:b9:67:14:67:06:08:bc:83:6f:6e:55:44:6f:8b:f6:
         3b:e1:c9:b7:30:30:20:e9:ed:32:1d:42:1a:d9:6c:d5:4a:7b:
         33:13:74:a9:9e:c9:0d:ed:42:f4:2a:4c:a0:94:f6:e3:a1:0a:
         cc:e7:8d:c1:91:be:bf:5a:bf:a9:40:f5:97:dc:8d:e6:f7:04:
         db:3d:24:17:d0:35:6a:a0:e8:e2:c4:7e:76:5a:ab:fb:54:8a:
         b0:98:f7:f5
-----BEGIN CERTIFICATE-----
MIIECTCCAvGgAwIBAgIEEAAA0TANBgkqhkiG9w0BAQUFADBEMQswCQYDVQQGEwJE
RTEPMA0GA1UECAwGSGVzc2VuMRQwEgYDVQQKDAtwcml2YWN5aWRlYTEOMAwGA1UE
AwwFQ0EwMDEwHhcNMTYwMTI1MTgxODUyWhcNMTcwMTI0MTgxODUyWjA3MRMwEQYD
VQQDEwpTdGV2ZSBUZXN0MSAwHgYJKoZIhvcNAQkBFhFzdGV2ZUBvcGVuc3NsLm9y
ZzCCASIwDQYJKoZIhvcNAQEBBQADggEPADCCAQoCggEBANKBiSBRSA9z9BEyJNUf
HP1c9bbmxfBSgdzSr2ZKfJMxYVyv0W0GcANgfHIMiN1JzZ4CbNJa11MP89q+aWS1
DwwA47NQR6Ozm7oTUNZYWkurOeARygonZwN4ImZtkh4bXEmu5mvRjjudBtPGrE1T
QxCr6JbBh4KXmY8g05kSNzGE4Yr/KQNfIpA+f5vgIMGt3K5MORoxlhcCjLLZtA0g
Ept9hlT9M/3BKmJG+GCWz24BbyLfE0fnl+wFciOjYvj676yccvA3yy83z5CoJ1GG
xtd4CI9+JaIVcKL7HLYVXqCXi4FMCSiKJzuUvHHbW3E3misW4G+1yfVLTyC6Zc+v
ra0CAwEAAaOCAQ4wggEKMAsGA1UdDwQEAwIFoDAJBgNVHRMEAjAAMBEGCWCGSAGG
+EIBAQQEAwIGQDAzBglghkgBhvhCAQ0EJhYkT3BlblNTTCBHZW5lcmF0ZWQgU2Vy
dmVyIENlcnRpZmljYXRlMB0GA1UdDgQWBBTlJW0+rw3dP0zyRRk51RTbfpzArTB0
BgNVHSMEbTBrgBT0p8DMkUavZPOR8if4yLJviocyc6FIpEYwRDELMAkGA1UEBhMC
REUxDzANBgNVBAgMBkhlc3NlbjEUMBIGA1UECgwLcHJpdmFjeWlkZWExDjAMBgNV
BAMMBUNBMDAxggkA+8jrrIPNEgcwEwYDVR0lBAwwCgYIKwYBBQUHAwEwDQYJKoZI
hvcNAQEFBQADggEBALTfWQ+raIVZozL6k4n0rAMzpxcXiKm7AUdoV5ZZQxkDoD8y
O015ZjRyI71BUIKRAU/7bWI1mpdhidy8S/OjlqLt48mNu66kqSNiwiYVw3vyETqq
QXCRpSLgmOcZ5ycYLwb5HWNriyawcjImbOgzHTnLDBSHxrtZ5lBJBE7WA3OH+gBg
EIqJAju5zy5mcWAewsJNAwqZncpmgT9RxFAJwVZ1/4pcE7lnFGcGCLyDb25VRG+L
9jvhybcwMCDp7TIdQhrZbNVKezMTdKmeyQ3tQvQqTKCU9uOhCsznjcGRvr9av6lA
9Zfcjeb3BNs9JBfQNWqg6OLEfnZaq/tUirCY9/U=
-----END CERTIFICATE-----
