Certificate:
    Data:
        Version: 3 (0x2)
        Serial Number: 268435652 (0x100000c4)
    Signature Algorithm: sha1WithRSAEncryption
        Issuer: C=DE, ST=Hessen, O=privacyidea, CN=CA001
        Validity
            Not Before: Jan 25 16:55:07 2016 GMT
            Not After : Jan 24 16:55:07 2017 GMT
        Subject: C=DE, ST=Hessen, O=privacyidea, CN=requester.localdomain
        Subject Public Key Info:
            Public Key Algorithm: rsaEncryption
                Public-Key: (2048 bit)
                Modulus:
                    00:cd:be:14:4f:fa:ce:01:3f:42:22:1b:1d:9c:af:
                    dd:92:d2:7f:db:6c:b7:3e:39:43:43:6b:13:03:f1:
                    05:f4:07:74:bc:76:69:28:0b:af:19:8e:d7:fc:e3:
                    cd:c6:58:f2:ca:7f:08:6d:53:fc:07:02:44:24:c6:
                    b4:34:4c:8c:04:fe:33:0e:40:e2:20:ba:02:73:5a:
                    f7:f5:4f:63:6e:cc:c6:b6:df:54:1d:37:39:7d:51:
                    36:26:5f:bd:dc:3f:a8:8b:6b:a2:ae:b6:9d:d6:21:
                    e7:df:41:b8:7a:28:2a:68:48:ca:a8:2d:ed:e1:e9:
                    46:5e:5a:72:6d:b4:84:38:87:91:fd:94:11:0b:28:
                    84:c6:c2:2f:2a:fb:01:f9:36:7a:09:75:d1:33:88:
                    3c:73:41:5b:c8:bf:94:89:70:a1:f0:c0:b9:2e:50:
                    53:1e:b1:17:64:69:f4:2d:81:e0:a9:0d:0e:32:e9:
                    ba:55:8a:85:f1:1b:6f:49:79:b4:7f:88:c3:0d:3e:
                    54:88:9b:3d:1f:38:8c:04:f3:ee:6a:63:2b:f5:c6:
                    db:b4:83:aa:c4:78:41:3a:7d:4b:e1:c8:3e:71:ca:
                    1b:61:59:ea:c6:c4:ca:32:5e:c9:e9:bf:12:29:e6:
                    c6:c3:63:fe:a0:55:da:7a:f1:60:98:4d:26:ed:fa:
                    70:2d
                Exponent: 65537 (0x10001)
        X509v3 extensions:
            X509v3 Key Usage: 
                Digital Signature, Key Encipherment
            X509v3 Basic Constraints: 
                CA:FALSE
            Netscape Cert Type: 
                SSL Server
            Netscape Comment: 
                OpenSSL Generated Server Certificate
            X509v3 Subject Key Identifier: 
                53:3F:ED:5D:09:07:B3:65:7B:AB:45:C9:24:5B:09:77:80:0A:96:ED
            X509v3 Authority Key Identifier: 
                keyid:F4:A7:C0:CC:91:46:AF:64:F3:91:F2:27:F8:C8:B2:6F:8A:87:32:73
                DirName:/C=DE/ST=Hessen/O=privacyidea/CN=CA001
                serial:FB:C8:EB:AC:83:CD:12:07

            X509v3 Extended Key Usage: 
                TLS Web Server Authentication
    Signature Algorithm: sha1WithRSAEncryption
         4d:2a:ae:40:7b:fc:05:e9:72:28:ff:41:83:f1:a3:bf:df:65:
         58:96:10:33:ee:48:2b:dd:d9:8d:4e:f0:9b:c4:54:78:f9:39:
         cb:ab:bc:fa:3e:c3:6b:c3:a7:94:33:65:fd:64:4c:44:63:77:
         be:7f:84:15:81:98:c8:e0:a3:17:67:b2:1a:24:19:32:86:52:
         db:bc:56:8d:2c:18:0b:2f:b0:27:34:be:f0:38:f9:20:e9:df:
         da:3f:f7:22:f0:a4:35:1c:af:b1:d5:c3:ac:99:ed:a4:f3:54:
         88:c9:c7:9f:08:50:28:1e:58:7e:a0:07:87:56:2a:b3:2f:d8:
         54:67:e7:9e:6c:59:c8:da:6f:71:a0:dc:86:03:a1:57:f1:f6:
         fc:6a:96:4b:2f:75:ae:a5:23:5a:fc:fc:2c:10:11:be:28:3c:
         53:52:f2:ed:1d:b9:c3:40:b9:50:d1:42:51:76:2e:66:7a:62:
         32:1f:a2:b8:3e:b9:0c:72:12:28:db:17:14:28:61:4f:17:6a:
         a5:cc:df:f6:bb:58:d4:63:4a:fa:8d:9a:e5:2e:75:0b:69:f4:
         54:ff:12:47:0f:f9:7c:20:be:9e:6a:f3:2b:b5:de:3d:06:68:
         85:be:2d:7c:23:2e:86:58:3f:9e:1d:25:51:cb:93:fa:77:2a:
         75:ac:a7:56
-----BEGIN CERTIFICATE-----
MIIEJjCCAw6gAwIBAgIEEAAAxDANBgkqhkiG9w0BAQUFADBEMQswCQYDVQQGEwJE
RTEPMA0GA1UECAwGSGVzc2VuMRQwEgYDVQQKDAtwcml2YWN5aWRlYTEOMAwGA1UE
AwwFQ0EwMDEwHhcNMTYwMTI1MTY1NTA3WhcNMTcwMTI0MTY1NTA3WjBUMQswCQYD
VQQGEwJERTEPMA0GA1UECAwGSGVzc2VuMRQwEgYDVQQKDAtwcml2YWN5aWRlYTEe
MBwGA1UEAwwVcmVxdWVzdGVyLmxvY2FsZG9tYWluMIIBIjANBgkqhkiG9w0BAQEF
AAOCAQ8AMIIBCgKCAQEAzb4UT/rOAT9CIhsdnK/dktJ/22y3PjlDQ2sTA/EF9Ad0
vHZpKAuvGY7X/OPNxljyyn8IbVP8BwJEJMa0NEyMBP4zDkDiILoCc1r39U9jbszG
tt9UHTc5fVE2Jl+93D+oi2uirrad1iHn30G4eigqaEjKqC3t4elGXlpybbSEOIeR
/ZQRCyiExsIvKvsB+TZ6CXXRM4g8c0FbyL+UiXCh8MC5LlBTHrEXZGn0LYHgqQ0O
Mum6VYqF8RtvSXm0f4jDDT5UiJs9HziMBPPuamMr9cbbtIOqxHhBOn1L4cg+ccob
YVnqxsTKMl7J6b8SKebGw2P+oFXaevFgmE0m7fpwLQIDAQABo4IBDjCCAQowCwYD
VR0PBAQDAgWgMAkGA1UdEwQCMAAwEQYJYIZIAYb4QgEBBAQDAgZAMDMGCWCGSAGG
+EIBDQQmFiRPcGVuU1NMIEdlbmVyYXRlZCBTZXJ2ZXIgQ2VydGlmaWNhdGUwHQYD
VR0OBBYEFFM/7V0JB7Nle6tFySRbCXeACpbtMHQGA1UdIwRtMGuAFPSnwMyRRq9k
85HyJ/jIsm+KhzJzoUikRjBEMQswCQYDVQQGEwJERTEPMA0GA1UECAwGSGVzc2Vu
MRQwEgYDVQQKDAtwcml2YWN5aWRlYTEOMAwGA1UEAwwFQ0EwMDGCCQD7yOusg80S
BzATBgNVHSUEDDAKBggrBgEFBQcDATANBgkqhkiG9w0BAQUFAAOCAQEATSquQHv8
BelyKP9Bg/Gjv99lWJYQM+5IK93ZjU7wm8RUePk5y6u8+j7Da8OnlDNl/WRMRGN3
vn+EFYGYyOCjF2eyGiQZMoZS27xWjSwYCy+wJzS+8Dj5IOnf2j/3IvCkNRyvsdXD
rJntpPNUiMnHnwhQKB5YfqAHh1Yqsy/YVGfnnmxZyNpvcaDchgOhV/H2/GqWSy91
rqUjWvz8LBARvig8U1Ly7R25w0C5UNFCUXYuZnpiMh+iuD65DHISKNsXFChhTxdq
pczf9rtY1GNK+o2a5S51C2n0VP8SRw/5fCC+nmrzK7XePQZohb4tfCMuhlg/nh0l
UcuT+ncqdaynVg==
-----END CERTIFICATE-----
