Certificate:
    Data:
        Version: 3 (0x2)
        Serial Number: 268435655 (0x100000c7)
    Signature Algorithm: sha1WithRSAEncryption
        Issuer: C=DE, ST=Hessen, O=privacyidea, CN=CA001
        Validity
            Not Before: Jan 25 16:57:36 2016 GMT
            Not After : Jan 24 16:57:36 2017 GMT
        Subject: C=DE, ST=Hessen, O=privacyidea, CN=requester.localdomain
        Subject Public Key Info:
            Public Key Algorithm: rsaEncryption
                Public-Key: (2048 bit)
                Modulus:
                    00:cd:be:14:4f:fa:ce:01:3f:42:22:1b:1d:9c:af:
                    dd:92:d2:7f:db:6c:b7:3e:39:43:43:6b:13:03:f1:
                    05:f4:07:74:bc:76:69:28:0b:af:19:8e:d7:fc:e3:
                    cd:c6:58:f2:ca:7f:08:6d:53:fc:07:02:44:24:c6:
                    b4:34:4c:8c:04:fe:33:0e:40:e2:20:ba:02:73:5a:
                    f7:f5:4f:63:6e:cc:c6:b6:df:54:1d:37:39:7d:51:
                    36:26:5f:bd:dc:3f:a8:8b:6b:a2:ae:b6:9d:d6:21:
                    e7:df:41:b8:7a:28:2a:68:48:ca:a8:2d:ed:e1:e9:
                    46:5e:5a:72:6d:b4:84:38:87:91:fd:94:11:0b:28:
                    84:c6:c2:2f:2a:fb:01:f9:36:7a:09:75:d1:33:88:
                    3c:73:41:5b:c8:bf:94:89:70:a1:f0:c0:b9:2e:50:
                    53:1e:b1:17:64:69:f4:2d:81:e0:a9:0d:0e:32:e9:
                    ba:55:8a:85:f1:1b:6f:49:79:b4:7f:88:c3:0d:3e:
                    54:88:9b:3d:1f:38:8c:04:f3:ee:6a:63:2b:f5:c6:
                    db:b4:83:aa:c4:78:41:3a:7d:4b:e1:c8:3e:71:ca:
                    1b:61:59:ea:c6:c4:ca:32:5e:c9:e9:bf:12:29:e6:
                    c6:c3:63:fe:a0:55:da:7a:f1:60:98:4d:26:ed:fa:
                    70:2d
                Exponent: 65537 (0x10001)
        X509v3 extensions:
            X509v3 Key Usage: 
                Digital Signature, Key Encipherment
            X509v3 Basic Constraints: 
                CA:FALSE
            Netscape Cert Type: 
                SSL Server
            Netscape Comment: 
                OpenSSL Generated Server Certificate
            X509v3 Subject Key Identifier: 
                53:3F:ED:5D:09:07:B3:65:7B:AB:45:C9:24:5B:09:77:80:0A:96:ED
            X509v3 Authority Key Identifier: 
                keyid:F4:A7:C0:CC:91:46:AF:64:F3:91:F2:27:F8:C8:B2:6F:8A:87:32:73
                DirName:/C=DE/ST=Hessen/O=privacyidea/CN=CA001
                serial:FB:C8:EB:AC:83:CD:12:07

            X509v3 Extended Key Usage: 
                TLS Web Server Authentication
    Signature Algorithm: sha1WithRSAEncryption
         83:43:9f:65:a3:7f:3a:cd:be:7e:28:20:42:ce:42:ff:36:0c:
         8f:78:d1:ce:7c:d1:03:31:d2:0f:04:cb:cf:08:4f:32:35:f2:
         e3:63:82:a9:56:8b:bf:2f:07:4f:52:96:11:37:d1:bf:bb:61:
         c3:65:78:28:b6:55:51:fd:09:c1:b2:4f:dc:37:0b:0e:5b:17:
         62:40:34:93:3c:77:69:21:9f:9d:89:91:61:c0:bd:95:e8:c1:
         84:2c:ce:a3:0c:33:c1:90:aa:3c:73:ab:f7:06:b7:cd:c8:9f:
         00:a2:b1:17:14:9d:00:4d:dc:35:ad:7e:14:6b:95:b3:d2:83:
         f6:68:4d:b6:3f:a6:58:bd:76:3f:a1:b3:78:43:7a:81:14:09:
         14:c6:ce:06:ec:c1:20:5c:1a:80:c4:c2:bc:1e:4f:80:31:cd:
         bf:b3:8f:22:1e:5a:9c:dc:6a:b3:6b:6e:c8:b7:4c:2d:3d:b3:
         5c:5e:b7:bc:df:a3:42:16:a7:37:f1:c8:6e:37:74:aa:33:e0:
         4d:b1:c4:07:d6:4c:18:2a:3d:2e:74:5d:01:c5:55:e3:f8:ff:
         3b:cb:79:e8:3b:6c:24:15:b5:95:7f:26:f4:d3:ee:4a:47:00:
         21:fe:bf:f7:a5:bd:18:37:42:10:42:3c:04:c3:ee:b7:75:c4:
         00:ec:81:c0
-----BEGIN CERTIFICATE-----
MIIEJjCCAw6gAwIBAgIEEAAAxzANBgkqhkiG9w0BAQUFADBEMQswCQYDVQQGEwJE
RTEPMA0GA1UECAwGSGVzc2VuMRQwEgYDVQQKDAtwcml2YWN5aWRlYTEOMAwGA1UE
AwwFQ0EwMDEwHhcNMTYwMTI1MTY1NzM2WhcNMTcwMTI0MTY1NzM2WjBUMQswCQYD
VQQGEwJERTEPMA0GA1UECAwGSGVzc2VuMRQwEgYDVQQKDAtwcml2YWN5aWRlYTEe
MBwGA1UEAwwVcmVxdWVzdGVyLmxvY2FsZG9tYWluMIIBIjANBgkqhkiG9w0BAQEF
AAOCAQ8AMIIBCgKCAQEAzb4UT/rOAT9CIhsdnK/dktJ/22y3PjlDQ2sTA/EF9Ad0
vHZpKAuvGY7X/OPNxljyyn8IbVP8BwJEJMa0NEyMBP4zDkDiILoCc1r39U9jbszG
tt9UHTc5fVE2Jl+93D+oi2uirrad1iHn30G4eigqaEjKqC3t4elGXlpybbSEOIeR
/ZQRCyiExsIvKvsB+TZ6CXXRM4g8c0FbyL+UiXCh8MC5LlBTHrEXZGn0LYHgqQ0O
Mum6VYqF8RtvSXm0f4jDDT5UiJs9HziMBPPuamMr9cbbtIOqxHhBOn1L4cg+ccob
YVnqxsTKMl7J6b8SKebGw2P+oFXaevFgmE0m7fpwLQIDAQABo4IBDjCCAQowCwYD
VR0PBAQDAgWgMAkGA1UdEwQCMAAwEQYJYIZIAYb4QgEBBAQDAgZAMDMGCWCGSAGG
+EIBDQQmFiRPcGVuU1NMIEdlbmVyYXRlZCBTZXJ2ZXIgQ2VydGlmaWNhdGUwHQYD
VR0OBBYEFFM/7V0JB7Nle6tFySRbCXeACpbtMHQGA1UdIwRtMGuAFPSnwMyRRq9k
85HyJ/jIsm+KhzJzoUikRjBEMQswCQYDVQQGEwJERTEPMA0GA1UECAwGSGVzc2Vu
MRQwEgYDVQQKDAtwcml2YWN5aWRlYTEOMAwGA1UEAwwFQ0EwMDGCCQD7yOusg80S
BzATBgNVHSUEDDAKBggrBgEFBQcDATANBgkqhkiG9w0BAQUFAAOCAQEAg0OfZaN/
Os2+figgQs5C/zYMj3jRznzRAzHSDwTLzwhPMjXy42OCqVaLvy8HT1KWETfRv7th
w2V4KLZVUf0JwbJP3DcLDlsXYkA0kzx3aSGfnYmRYcC9lejBhCzOowwzwZCqPHOr
9wa3zcifAKKxFxSdAE3cNa1+FGuVs9KD9mhNtj+mWL12P6GzeEN6gRQJFMbOBuzB
IFwagMTCvB5PgDHNv7OPIh5anNxqs2tuyLdMLT2zXF63vN+jQhanN/HIbjd0qjPg
TbHEB9ZMGCo9LnRdAcVV4/j/O8t56DtsJBW1lX8m9NPuSkcAIf6/96W9GDdCEEI8
BMPut3XEAOyBwA==
-----END CERTIFICATE-----
