Certificate:
    Data:
        Version: 3 (0x2)
        Serial Number: 268435664 (0x100000d0)
    Signature Algorithm: sha1WithRSAEncryption
        Issuer: C=DE, ST=Hessen, O=privacyidea, CN=CA001
        Validity
            Not Before: Jan 25 18:18:52 2016 GMT
            Not After : Jan 24 18:18:52 2017 GMT
        Subject: C=DE, ST=Hessen, O=privacyidea, CN=usercert
        Subject Public Key Info:
            Public Key Algorithm: rsaEncryption
                Public-Key: (2048 bit)
                Modulus:
                    00:dc:2f:d1:5f:29:97:d4:7c:c3:53:c8:30:bd:4b:
                    67:70:2c:24:6b:b8:5e:eb:21:7a:48:12:56:7c:81:
                    5c:48:75:b6:68:eb:f6:f2:98:4e:50:51:d1:7f:6c:
                    73:f3:0a:a7:ae:be:48:5e:e5:d6:e1:d9:2a:7c:32:
                    6e:4e:fd:08:f6:5a:54:49:23:73:c3:b9:07:18:d1:
                    ef:b3:ac:f8:8a:dc:94:96:a4:90:3a:8e:74:df:e6:
                    0d:37:1b:bd:5b:b7:25:1a:56:39:da:6f:91:aa:5e:
                    1c:74:f3:f9:7c:14:01:83:12:65:76:c7:bb:fe:36:
                    5b:95:e9:72:65:83:ed:3e:98:30:71:fa:87:dd:a3:
                    36:5a:30:03:2e:26:e0:61:d1:bf:02:3f:b6:06:1f:
                    4a:89:28:1c:5c:a2:ff:4e:be:94:e6:8c:e0:da:82:
                    f1:9d:29:32:48:30:73:b4:04:f6:42:1e:be:f7:e2:
                    32:32:27:3c:9d:89:2f:70:3e:85:9a:6f:5c:c5:09:
                    c0:8c:32:2f:72:22:c9:d2:95:1f:b6:ac:72:60:72:
                    b7:82:4d:6b:ce:5b:e3:00:d0:d2:2f:58:c6:e0:10:
                    e5:51:ca:4d:3b:2e:e6:7e:ab:84:d6:56:f1:93:35:
                    a0:93:64:26:81:75:2f:91:b5:16:06:38:0b:db:cc:
                    2d:07
                Exponent: 65537 (0x10001)
        X509v3 extensions:
            X509v3 Key Usage: 
                Digital Signature, Key Encipherment
            X509v3 Basic Constraints: 
                CA:FALSE
            Netscape Cert Type: 
                SSL Server
            Netscape Comment: 
                OpenSSL Generated Server Certificate
            X509v3 Subject Key Identifier: 
                FC:14:D1:F0:4B:8D:00:90:F2:F5:B8:71:9E:4E:97:C3:92:54:AD:0B
            X509v3 Authority Key Identifier: 
                keyid:F4:A7:C0:CC:91:46:AF:64:F3:91:F2:27:F8:C8:B2:6F:8A:87:32:73
                DirName:/C=DE/ST=Hessen/O=privacyidea/CN=CA001
                serial:FB:C8:EB:AC:83:CD:12:07

            X509v3 Extended Key Usage: 
                TLS Web Server Authentication
    Signature Algorithm: sha1WithRSAEncryption
         3f:7b:e9:ad:bc:8a:d0:97:ed:85:06:fe:90:2f:09:6e:d9:8d:
         85:f5:9f:4f:e8:3e:9a:b8:75:9d:cc:cd:47:c3:60:d9:1e:04:
         71:03:d3:cf:18:0f:87:d1:a4:cf:8a:fe:ef:9d:9b:3f:6a:48:
         c8:24:c5:5d:7e:4c:cb:b7:32:7e:9b:f1:35:e6:5f:fc:2a:5f:
         58:15:57:00:0b:85:14:2c:22:65:14:89:29:da:75:ec:bf:b5:
         b8:d9:9b:10:48:28:af:37:93:d2:13:09:9b:ad:cf:fb:d9:83:
         75:46:c0:06:31:18:c8:79:ed:8f:87:72:18:0b:bf:1b:f0:3d:
         de:e0:d2:aa:54:1d:30:e2:8d:05:20:29:24:14:a3:06:54:94:
         2a:4b:9d:d2:34:d3:4b:f5:09:29:35:68:1c:c9:19:bb:35:51:
         b3:0b:f7:39:c1:96:ca:49:65:c5:4b:de:bc:f8:0e:90:22:80:
         d5:ff:f9:a4:39:fb:2e:a4:69:65:34:9c:93:1e:5a:91:86:50:
         f5:84:56:8d:87:ff:b0:b5:88:c9:46:be:01:87:00:60:5a:97:
         c7:e6:46:98:3b:1a:e8:92:16:d6:51:91:48:81:ea:c1:c6:83:
         29:d5:aa:e5:95:f7:0b:f9:80:00:e5:d9:51:82:70:38:c4:b1:
         02:04:d3:6f
-----BEGIN CERTIFICATE-----
MIIEGTCCAwGgAwIBAgIEEAAA0DANBgkqhkiG9w0BAQUFADBEMQswCQYDVQQGEwJE
RTEPMA0GA1UECAwGSGVzc2VuMRQwEgYDVQQKDAtwcml2YWN5aWRlYTEOMAwGA1UE
AwwFQ0EwMDEwHhcNMTYwMTI1MTgxODUyWhcNMTcwMTI0MTgxODUyWjBHMQswCQYD
VQQGEwJERTEPMA0GA1UECAwGSGVzc2VuMRQwEgYDVQQKDAtwcml2YWN5aWRlYTER
MA8GA1UEAwwIdXNlcmNlcnQwggEiMA0GCSqGSIb3DQEBAQUAA4IBDwAwggEKAoIB
AQDcL9FfKZfUfMNTyDC9S2dwLCRruF7rIXpIElZ8gVxIdbZo6/bymE5QUdF/bHPz
Cqeuvkhe5dbh2Sp8Mm5O/Qj2WlRJI3PDuQcY0e+zrPiK3JSWpJA6jnTf5g03G71b
tyUaVjnab5GqXhx08/l8FAGDEmV2x7v+NluV6XJlg+0+mDBx+ofdozZaMAMuJuBh
0b8CP7YGH0qJKBxcov9OvpTmjODagvGdKTJIMHO0BPZCHr734jIyJzydiS9wPoWa
b1zFCcCMMi9yIsnSlR+2rHJgcreCTWvOW+MA0NIvWMbgEOVRyk07LuZ+q4TWVvGT
NaCTZCaBdS+RtRYGOAvbzC0HAgMBAAGjggEOMIIBCjALBgNVHQ8EBAMCBaAwCQYD
VR0TBAIwADARBglghkgBhvhCAQEEBAMCBkAwMwYJYIZIAYb4QgENBCYWJE9wZW5T
U0wgR2VuZXJhdGVkIFNlcnZlciBDZXJ0aWZpY2F0ZTAdBgNVHQ4EFgQU/BTR8EuN
AJDy9bhxnk6Xw5JUrQswdAYDVR0jBG0wa4AU9KfAzJFGr2TzkfIn+Miyb4qHMnOh
SKRGMEQxCzAJBgNVBAYTAkRFMQ8wDQYDVQQIDAZIZXNzZW4xFDASBgNVBAoMC3By
aXZhY3lpZGVhMQ4wDAYDVQQDDAVDQTAwMYIJAPvI66yDzRIHMBMGA1UdJQQMMAoG
CCsGAQUFBwMBMA0GCSqGSIb3DQEBBQUAA4IBAQA/e+mtvIrQl+2FBv6QLwlu2Y2F
9Z9P6D6auHWdzM1Hw2DZHgRxA9PPGA+H0aTPiv7vnZs/akjIJMVdfkzLtzJ+m/E1
5l/8Kl9YFVcAC4UULCJlFIkp2nXsv7W42ZsQSCivN5PSEwmbrc/72YN1RsAGMRjI
ee2Ph3IYC78b8D3e4NKqVB0w4o0FICkkFKMGVJQqS53SNNNL9QkpNWgcyRm7NVGz
C/c5wZbKSWXFS968+A6QIoDV//mkOfsupGllNJyTHlqRhlD1hFaNh/+wtYjJRr4B
hwBgWpfH5kaYOxrokhbWUZFIgerBxoMp1arllfcL+YAA5dlRgnA4xLECBNNv
-----END CERTIFICATE-----
