(dp1
S'basic_reports'
p2
(dp3
S'bars'
p4
(dp5
g4
S'/Users/meren/Desktop/MBL/Oligotyping/oligotyping/Unittests/files/clone43-v6v4-c1-s1-a0.0-A0-M0/FIGURES/__default__/bars/bars'
p6
ssS'lines'
p7
(dp8
g7
S'/Users/meren/Desktop/MBL/Oligotyping/oligotyping/Unittests/files/clone43-v6v4-c1-s1-a0.0-A0-M0/FIGURES/__default__/lines/lines'
p9
ssS'stackbar'
p10
(dp11
g10
S'/Users/meren/Desktop/MBL/Oligotyping/oligotyping/Unittests/files/clone43-v6v4-c1-s1-a0.0-A0-M0/FIGURES/__default__/stackbar/stackbar'
p12
sssS'basic_analyses'
p13
(dp14
s.