(dp1
S'A'
I0
sS'version'
p2
S'2.1'
p3
sS'matrix_count_file_path'
p4
S'/Users/meren/Desktop/MBL/Oligotyping/oligotyping/Unittests/files/clone43-v6v4-c1-s1-a0.0-A0-M0/MATRIX-COUNT.txt'
p5
sS'oligos_fasta_file_path'
p6
S'/Users/meren/Desktop/MBL/Oligotyping/oligotyping/Unittests/files/clone43-v6v4-c1-s1-a0.0-A0-M0/OLIGOS.fasta'
p7
sS'environment_file_path'
p8
S'/Users/meren/Desktop/MBL/Oligotyping/oligotyping/Unittests/files/clone43-v6v4-c1-s1-a0.0-A0-M0/ENVIRONMENT.txt'
p9
sS'entropy'
p10
S'/Users/meren/Desktop/MBL/Oligotyping/oligotyping/Unittests/files/clone43-v6v4.fa-ENTROPY'
p11
sS'final_purity_score_dict'
p12
(dp13
S'A'
F0
sS'C'
F0
sS'-'
F0
sS'T'
F0
sS'G'
F0
ssS'final_oligos'
p14
(lp15
S'T'
aS'C'
aS'G'
aS'-'
aS'A'
asS'alignment'
p16
S'/Users/meren/Desktop/MBL/Oligotyping/oligotyping/Unittests/files/clone43-v6v4.fa'
p17
sS'final_oligo_unique_distribution_dict'
p18
(dp19
S'A'
(lp20
I1
aI1
aI1
aI1
aI1
asS'C'
(lp21
I1
aI1
aI1
aI1
aI1
aI1
aI1
aI1
aI1
aI1
asS'-'
(lp22
I1
aI1
aI1
aI1
aI1
aI1
asS'T'
(lp23
I1
aI1
aI1
aI1
aI1
aI1
aI1
aI1
aI1
aI1
aI1
aI1
aI1
aI1
aI1
asS'G'
(lp24
I1
aI1
aI1
aI1
aI1
aI1
aI1
assS'project'
p25
S'clone43-v6v4'
p26
sS'final_oligo_entropy_distribution_dict'
p27
(dp28
sS'num_samples_in_fasta'
p29
I1
sS'run_date'
p30
S'19 Jan 16 18:11:37'
p31
sS'num_sequences_after_qc'
p32
I43
sS'num_oligos_after_a_elim'
p33
I5
sS'end_of_run'
p34
S'19 Jan 16 18:11:42'
p35
sS'matrix_percent_file_path'
p36
S'/Users/meren/Desktop/MBL/Oligotyping/oligotyping/Unittests/files/clone43-v6v4-c1-s1-a0.0-A0-M0/MATRIX-PERCENT.txt'
p37
sS'info_file_path'
p38
S'/Users/meren/Desktop/MBL/Oligotyping/oligotyping/Unittests/files/clone43-v6v4-c1-s1-a0.0-A0-M0/RUNINFO'
p39
sS'cmd_line'
p40
S'/Users/meren/Desktop/MBL/Oligotyping/oligotyping/bin/oligotype clone43-v6v4.fa clone43-v6v4.fa-ENTROPY -c 1 --gen-html --skip-blast --skip-check'
p41
sS'gexf_network_file_path'
p42
S'/Users/meren/Desktop/MBL/Oligotyping/oligotyping/Unittests/files/clone43-v6v4-c1-s1-a0.0-A0-M0/NETWORK.gexf'
p43
sS'alignment_length'
p44
I591
sS'skip_basic_analyses'
p45
I01
sS'num_unique_oligos'
p46
I5
sS'sample_mapping'
p47
NsS'num_oligos_after_M_elim'
p48
I5
sS'bases_of_interest_locs'
p49
S'292'
p50
sS'read_distribution_table_path'
p51
S'/Users/meren/Desktop/MBL/Oligotyping/oligotyping/Unittests/files/clone43-v6v4-c1-s1-a0.0-A0-M0/READ-DISTRIBUTION.txt'
p52
sS'total_seq'
p53
I43
sS'M'
I0
sS'output_directory'
p54
S'/Users/meren/Desktop/MBL/Oligotyping/oligotyping/Unittests/files/clone43-v6v4-c1-s1-a0.0-A0-M0'
p55
sS'oligos_nexus_file_path'
p56
S'/Users/meren/Desktop/MBL/Oligotyping/oligotyping/Unittests/files/clone43-v6v4-c1-s1-a0.0-A0-M0/OLIGOS.nexus'
p57
sS'tmp_directory'
p58
S'/Users/meren/Desktop/MBL/Oligotyping/oligotyping/Unittests/files/clone43-v6v4-c1-s1-a0.0-A0-M0/TMP'
p59
sS'generate_sets'
p60
I00
sS'a'
F0
sS'number_of_selected_components'
p61
I0
sS'num_oligos_after_s_elim'
p62
I5
sS'total_purity_score_dict'
p63
S'0.00'
p64
sS'num_oligos_after_A_elim'
p65
I5
sS'figures_dict_file_path'
p66
S'/Users/meren/Desktop/MBL/Oligotyping/oligotyping/Unittests/files/clone43-v6v4-c1-s1-a0.0-A0-M0/FIGURES.cPickle'
p67
sS'quals_provided'
p68
I00
sS'number_of_auto_components'
p69
I1
sS's'
I1
sS'final_oligo_counts_dict'
p70
(dp71
S'A'
I5
sS'C'
I10
sS'-'
I6
sS'T'
I15
sS'G'
I7
ssS'representative_seqs_fasta_file_path'
p72
S'/Users/meren/Desktop/MBL/Oligotyping/oligotyping/Unittests/files/clone43-v6v4-c1-s1-a0.0-A0-M0/OLIGO-REPRESENTATIVES.fasta'
p73
sS'multi_threaded'
p74
I01
sS'output_directory_for_reps'
p75
S'/Users/meren/Desktop/MBL/Oligotyping/oligotyping/Unittests/files/clone43-v6v4-c1-s1-a0.0-A0-M0/OLIGO-REPRESENTATIVES'
p76
sS'colors_file_path'
p77
S'/Users/meren/Desktop/MBL/Oligotyping/oligotyping/Unittests/files/clone43-v6v4-c1-s1-a0.0-A0-M0/COLORS'
p78
s.