Certificate:
    Data:
        Version: 3 (0x2)
        Serial Number: 268435656 (0x100000c8)
    Signature Algorithm: sha1WithRSAEncryption
        Issuer: C=DE, ST=Hessen, O=privacyidea, CN=CA001
        Validity
            Not Before: Feb  8 22:50:57 2016 GMT
            Not After : Feb  7 22:50:57 2017 GMT
        Subject: CN=selfservice,CN=user,O=realm1/emailAddress=meine
        Subject Public Key Info:
            Public Key Algorithm: rsaEncryption
                Public-Key: (2048 bit)
                Modulus:
                    00:cf:3c:d4:33:0e:12:c4:e6:da:cd:b6:56:a1:1c:
                    26:bb:26:1c:8a:4a:73:a8:58:8a:b6:1e:b3:8b:99:
                    d2:1d:07:c2:92:89:79:c0:69:d8:c8:df:28:61:98:
                    1e:b3:fe:ae:2b:bd:78:a9:f7:6e:47:dc:a3:a0:16:
                    8c:85:02:c1:4e:92:fd:72:6e:f0:c8:03:29:9b:b8:
                    00:6e:c0:83:95:c8:34:20:36:9c:b3:e5:e4:e6:76:
                    73:a3:1a:ad:40:96:e0:53:54:00:ec:76:79:9a:c6:
                    0d:7e:b6:bd:29:ec:83:f3:cb:89:a4:cb:6c:00:ba:
                    0c:c5:78:0f:ff:69:b8:94:f4:04:70:43:3f:d8:9e:
                    d7:a7:fb:5d:ce:75:8e:da:e7:c4:07:b1:9d:de:6f:
                    88:4b:b6:4d:9a:cf:f9:bc:fa:9f:cd:32:6d:f6:3a:
                    0b:0d:23:42:78:ec:97:42:bf:0e:4d:60:56:e1:d3:
                    02:f2:19:cb:84:57:90:e5:70:a1:a2:83:35:86:e2:
                    da:86:9f:f9:8a:c4:79:b3:52:28:da:cb:bb:34:ca:
                    d3:da:91:4a:cf:8d:76:a2:b2:6b:9b:f9:96:fd:09:
                    2a:da:11:23:4d:f0:cb:d6:b2:b1:0e:12:6c:9a:19:
                    65:98:87:ca:e4:ee:24:ce:44:ac:90:8f:9d:1b:c5:
                    2a:9d
                Exponent: 65537 (0x10001)
        X509v3 extensions:
            X509v3 Key Usage: 
                Digital Signature, Key Encipherment
            X509v3 Basic Constraints: 
                CA:FALSE
            Netscape Cert Type: 
                SSL Server
            Netscape Comment: 
                OpenSSL Generated Server Certificate
            X509v3 Subject Key Identifier: 
                4D:07:90:AD:FF:1D:0D:E7:1A:DD:D6:2E:FA:BA:34:CB:AA:1F:24:C6
            X509v3 Authority Key Identifier: 
                keyid:F4:A7:C0:CC:91:46:AF:64:F3:91:F2:27:F8:C8:B2:6F:8A:87:32:73
                DirName:/C=DE/ST=Hessen/O=privacyidea/CN=CA001
                serial:FB:C8:EB:AC:83:CD:12:07

            X509v3 Extended Key Usage: 
                TLS Web Server Authentication
    Signature Algorithm: sha1WithRSAEncryption
         5e:3a:27:47:7e:c8:5f:16:22:9f:24:07:07:be:dc:84:0c:e8:
         5f:10:8a:96:1d:db:24:63:93:d1:e1:ce:8c:c8:51:15:72:4d:
         ef:4c:48:92:bf:95:f2:c3:1a:4b:5e:80:3e:18:92:35:56:68:
         d4:b3:f4:bd:70:e6:e2:be:0d:ab:6c:d7:f3:27:61:87:7d:98:
         38:8a:59:79:cc:da:ca:4b:e3:79:f3:f0:93:24:3a:7c:63:72:
         e8:83:96:fd:28:9e:05:68:fc:c7:69:0f:47:0e:0b:82:c1:52:
         2b:cf:62:1a:f0:51:5c:d2:65:04:7c:5d:9a:f1:22:d6:b0:63:
         03:7b:91:23:d5:cf:9e:ed:a5:4d:88:7d:f5:e4:f7:e7:0a:e4:
         87:31:6d:89:9f:4e:a0:e5:ce:00:52:b8:b2:ee:15:c8:96:bc:
         c7:53:e0:20:27:32:19:01:cb:5c:f5:91:5b:8b:bf:a9:04:a0:
         68:be:a9:82:dc:22:c5:a0:70:ea:74:77:3a:e1:62:f6:68:a4:
         84:cb:20:49:e5:76:58:08:59:d5:09:ea:e7:54:da:56:ef:b2:
         aa:a5:e7:5b:e6:c7:64:e3:b8:23:6a:00:69:a1:38:01:27:37:
         6d:00:e9:c8:1e:2a:19:fc:31:13:d4:3e:f5:17:c4:d2:6b:58:
         bd:f6:e8:19
-----BEGIN CERTIFICATE-----
MIIEDzCCAvegAwIBAgIEEAAAyDANBgkqhkiG9w0BAQUFADBEMQswCQYDVQQGEwJE
RTEPMA0GA1UECAwGSGVzc2VuMRQwEgYDVQQKDAtwcml2YWN5aWRlYTEOMAwGA1UE
AwwFQ0EwMDEwHhcNMTYwMjA4MjI1MDU3WhcNMTcwMjA3MjI1MDU3WjA9MSUwIwYD
VQQDExxzZWxmc2VydmljZSxDTj11c2VyLE89cmVhbG0xMRQwEgYJKoZIhvcNAQkB
FgVtZWluZTCCASIwDQYJKoZIhvcNAQEBBQADggEPADCCAQoCggEBAM881DMOEsTm
2s22VqEcJrsmHIpKc6hYirYes4uZ0h0HwpKJecBp2MjfKGGYHrP+riu9eKn3bkfc
o6AWjIUCwU6S/XJu8MgDKZu4AG7Ag5XINCA2nLPl5OZ2c6MarUCW4FNUAOx2eZrG
DX62vSnsg/PLiaTLbAC6DMV4D/9puJT0BHBDP9ie16f7Xc51jtrnxAexnd5viEu2
TZrP+bz6n80ybfY6Cw0jQnjsl0K/Dk1gVuHTAvIZy4RXkOVwoaKDNYbi2oaf+YrE
ebNSKNrLuzTK09qRSs+NdqKya5v5lv0JKtoRI03wy9aysQ4SbJoZZZiHyuTuJM5E
rJCPnRvFKp0CAwEAAaOCAQ4wggEKMAsGA1UdDwQEAwIFoDAJBgNVHRMEAjAAMBEG
CWCGSAGG+EIBAQQEAwIGQDAzBglghkgBhvhCAQ0EJhYkT3BlblNTTCBHZW5lcmF0
ZWQgU2VydmVyIENlcnRpZmljYXRlMB0GA1UdDgQWBBRNB5Ct/x0N5xrd1i76ujTL
qh8kxjB0BgNVHSMEbTBrgBT0p8DMkUavZPOR8if4yLJviocyc6FIpEYwRDELMAkG
A1UEBhMCREUxDzANBgNVBAgMBkhlc3NlbjEUMBIGA1UECgwLcHJpdmFjeWlkZWEx
DjAMBgNVBAMMBUNBMDAxggkA+8jrrIPNEgcwEwYDVR0lBAwwCgYIKwYBBQUHAwEw
DQYJKoZIhvcNAQEFBQADggEBAF46J0d+yF8WIp8kBwe+3IQM6F8QipYd2yRjk9Hh
zozIURVyTe9MSJK/lfLDGktegD4YkjVWaNSz9L1w5uK+Dats1/MnYYd9mDiKWXnM
2spL43nz8JMkOnxjcuiDlv0ongVo/MdpD0cOC4LBUivPYhrwUVzSZQR8XZrxItaw
YwN7kSPVz57tpU2IffXk9+cK5IcxbYmfTqDlzgBSuLLuFciWvMdT4CAnMhkBy1z1
kVuLv6kEoGi+qYLcIsWgcOp0dzrhYvZopITLIEnldlgIWdUJ6udU2lbvsqql51vm
x2TjuCNqAGmhOAEnN20A6cgeKhn8MRPUPvUXxNJrWL326Bk=
-----END CERTIFICATE-----
