Certificate:
    Data:
        Version: 3 (0x2)
        Serial Number: 268435658 (0x100000ca)
    Signature Algorithm: sha1WithRSAEncryption
        Issuer: C=DE, ST=Hessen, O=privacyidea, CN=CA001
        Validity
            Not Before: Jan 25 17:03:50 2016 GMT
            Not After : Jan 24 17:03:50 2017 GMT
        Subject: C=DE, ST=Hessen, O=privacyidea, CN=usercert
        Subject Public Key Info:
            Public Key Algorithm: rsaEncryption
                Public-Key: (2048 bit)
                Modulus:
                    00:dc:2f:d1:5f:29:97:d4:7c:c3:53:c8:30:bd:4b:
                    67:70:2c:24:6b:b8:5e:eb:21:7a:48:12:56:7c:81:
                    5c:48:75:b6:68:eb:f6:f2:98:4e:50:51:d1:7f:6c:
                    73:f3:0a:a7:ae:be:48:5e:e5:d6:e1:d9:2a:7c:32:
                    6e:4e:fd:08:f6:5a:54:49:23:73:c3:b9:07:18:d1:
                    ef:b3:ac:f8:8a:dc:94:96:a4:90:3a:8e:74:df:e6:
                    0d:37:1b:bd:5b:b7:25:1a:56:39:da:6f:91:aa:5e:
                    1c:74:f3:f9:7c:14:01:83:12:65:76:c7:bb:fe:36:
                    5b:95:e9:72:65:83:ed:3e:98:30:71:fa:87:dd:a3:
                    36:5a:30:03:2e:26:e0:61:d1:bf:02:3f:b6:06:1f:
                    4a:89:28:1c:5c:a2:ff:4e:be:94:e6:8c:e0:da:82:
                    f1:9d:29:32:48:30:73:b4:04:f6:42:1e:be:f7:e2:
                    32:32:27:3c:9d:89:2f:70:3e:85:9a:6f:5c:c5:09:
                    c0:8c:32:2f:72:22:c9:d2:95:1f:b6:ac:72:60:72:
                    b7:82:4d:6b:ce:5b:e3:00:d0:d2:2f:58:c6:e0:10:
                    e5:51:ca:4d:3b:2e:e6:7e:ab:84:d6:56:f1:93:35:
                    a0:93:64:26:81:75:2f:91:b5:16:06:38:0b:db:cc:
                    2d:07
                Exponent: 65537 (0x10001)
        X509v3 extensions:
            X509v3 Key Usage: 
                Digital Signature, Key Encipherment
            X509v3 Basic Constraints: 
                CA:FALSE
            Netscape Cert Type: 
                SSL Server
            Netscape Comment: 
                OpenSSL Generated Server Certificate
            X509v3 Subject Key Identifier: 
                FC:14:D1:F0:4B:8D:00:90:F2:F5:B8:71:9E:4E:97:C3:92:54:AD:0B
            X509v3 Authority Key Identifier: 
                keyid:F4:A7:C0:CC:91:46:AF:64:F3:91:F2:27:F8:C8:B2:6F:8A:87:32:73
                DirName:/C=DE/ST=Hessen/O=privacyidea/CN=CA001
                serial:FB:C8:EB:AC:83:CD:12:07

            X509v3 Extended Key Usage: 
                TLS Web Server Authentication
    Signature Algorithm: sha1WithRSAEncryption
         52:69:3a:85:0f:ee:8a:68:f5:1f:41:ca:ab:69:e1:2b:db:19:
         cc:e4:ee:83:77:17:ec:9f:8f:90:2b:24:b1:05:b8:ad:33:b8:
         62:f0:4b:2a:83:e8:ab:97:d9:fa:c7:74:98:60:c2:d5:dc:62:
         24:10:dc:59:a9:af:e3:6d:f1:a4:59:a2:d4:9d:87:de:50:c9:
         27:5a:bf:ab:86:d0:a8:06:c8:dd:51:a4:96:47:a3:05:9a:19:
         2a:22:b9:c4:fd:f5:c3:5a:0e:49:c3:da:db:4c:3b:ae:0c:80:
         ee:42:d6:64:3a:67:81:14:d2:e9:46:92:f0:f3:0d:45:c0:cf:
         11:3b:e0:b1:32:27:9f:a7:a2:3d:13:85:89:c1:db:b1:0f:de:
         9a:c9:94:2d:7b:54:62:7f:79:db:95:1d:e8:65:c5:73:9c:78:
         e0:a0:8c:7f:cb:b0:11:d0:a6:5c:84:64:85:e3:de:90:4c:35:
         92:2c:b7:9d:a3:9a:df:73:02:03:8c:85:f2:00:69:54:17:83:
         c0:de:a0:a3:0e:58:41:75:1c:87:f4:80:43:e4:a0:5b:f1:8d:
         cc:52:1e:e8:58:fa:a6:1c:90:8f:db:90:c2:1f:0e:a0:9d:20:
         82:69:ff:cb:3f:b8:63:d7:12:aa:e8:b1:9e:52:4e:25:d7:fc:
         0f:fc:61:44
-----BEGIN CERTIFICATE-----
MIIEGTCCAwGgAwIBAgIEEAAAyjANBgkqhkiG9w0BAQUFADBEMQswCQYDVQQGEwJE
RTEPMA0GA1UECAwGSGVzc2VuMRQwEgYDVQQKDAtwcml2YWN5aWRlYTEOMAwGA1UE
AwwFQ0EwMDEwHhcNMTYwMTI1MTcwMzUwWhcNMTcwMTI0MTcwMzUwWjBHMQswCQYD
VQQGEwJERTEPMA0GA1UECAwGSGVzc2VuMRQwEgYDVQQKDAtwcml2YWN5aWRlYTER
MA8GA1UEAwwIdXNlcmNlcnQwggEiMA0GCSqGSIb3DQEBAQUAA4IBDwAwggEKAoIB
AQDcL9FfKZfUfMNTyDC9S2dwLCRruF7rIXpIElZ8gVxIdbZo6/bymE5QUdF/bHPz
Cqeuvkhe5dbh2Sp8Mm5O/Qj2WlRJI3PDuQcY0e+zrPiK3JSWpJA6jnTf5g03G71b
tyUaVjnab5GqXhx08/l8FAGDEmV2x7v+NluV6XJlg+0+mDBx+ofdozZaMAMuJuBh
0b8CP7YGH0qJKBxcov9OvpTmjODagvGdKTJIMHO0BPZCHr734jIyJzydiS9wPoWa
b1zFCcCMMi9yIsnSlR+2rHJgcreCTWvOW+MA0NIvWMbgEOVRyk07LuZ+q4TWVvGT
NaCTZCaBdS+RtRYGOAvbzC0HAgMBAAGjggEOMIIBCjALBgNVHQ8EBAMCBaAwCQYD
VR0TBAIwADARBglghkgBhvhCAQEEBAMCBkAwMwYJYIZIAYb4QgENBCYWJE9wZW5T
U0wgR2VuZXJhdGVkIFNlcnZlciBDZXJ0aWZpY2F0ZTAdBgNVHQ4EFgQU/BTR8EuN
AJDy9bhxnk6Xw5JUrQswdAYDVR0jBG0wa4AU9KfAzJFGr2TzkfIn+Miyb4qHMnOh
SKRGMEQxCzAJBgNVBAYTAkRFMQ8wDQYDVQQIDAZIZXNzZW4xFDASBgNVBAoMC3By
aXZhY3lpZGVhMQ4wDAYDVQQDDAVDQTAwMYIJAPvI66yDzRIHMBMGA1UdJQQMMAoG
CCsGAQUFBwMBMA0GCSqGSIb3DQEBBQUAA4IBAQBSaTqFD+6KaPUfQcqraeEr2xnM
5O6Ddxfsn4+QKySxBbitM7hi8Esqg+irl9n6x3SYYMLV3GIkENxZqa/jbfGkWaLU
nYfeUMknWr+rhtCoBsjdUaSWR6MFmhkqIrnE/fXDWg5Jw9rbTDuuDIDuQtZkOmeB
FNLpRpLw8w1FwM8RO+CxMiefp6I9E4WJwduxD96ayZQte1Rif3nblR3oZcVznHjg
oIx/y7AR0KZchGSF496QTDWSLLedo5rfcwIDjIXyAGlUF4PA3qCjDlhBdRyH9IBD
5KBb8Y3MUh7oWPqmHJCP25DCHw6gnSCCaf/LP7hj1xKq6LGeUk4l1/wP/GFE
-----END CERTIFICATE-----
