Certificate:
    Data:
        Version: 3 (0x2)
        Serial Number: 268435659 (0x100000cb)
    Signature Algorithm: sha1WithRSAEncryption
        Issuer: C=DE, ST=Hessen, O=privacyidea, CN=CA001
        Validity
            Not Before: Jan 25 17:03:50 2016 GMT
            Not After : Jan 24 17:03:50 2017 GMT
        Subject: CN=Steve Test/emailAddress=steve@openssl.org
        Subject Public Key Info:
            Public Key Algorithm: rsaEncryption
                Public-Key: (2048 bit)
                Modulus:
                    00:d2:81:89:20:51:48:0f:73:f4:11:32:24:d5:1f:
                    1c:fd:5c:f5:b6:e6:c5:f0:52:81:dc:d2:af:66:4a:
                    7c:93:31:61:5c:af:d1:6d:06:70:03:60:7c:72:0c:
                    88:dd:49:cd:9e:02:6c:d2:5a:d7:53:0f:f3:da:be:
                    69:64:b5:0f:0c:00:e3:b3:50:47:a3:b3:9b:ba:13:
                    50:d6:58:5a:4b:ab:39:e0:11:ca:0a:27:67:03:78:
                    22:66:6d:92:1e:1b:5c:49:ae:e6:6b:d1:8e:3b:9d:
                    06:d3:c6:ac:4d:53:43:10:ab:e8:96:c1:87:82:97:
                    99:8f:20:d3:99:12:37:31:84:e1:8a:ff:29:03:5f:
                    22:90:3e:7f:9b:e0:20:c1:ad:dc:ae:4c:39:1a:31:
                    96:17:02:8c:b2:d9:b4:0d:20:12:9b:7d:86:54:fd:
                    33:fd:c1:2a:62:46:f8:60:96:cf:6e:01:6f:22:df:
                    13:47:e7:97:ec:05:72:23:a3:62:f8:fa:ef:ac:9c:
                    72:f0:37:cb:2f:37:cf:90:a8:27:51:86:c6:d7:78:
                    08:8f:7e:25:a2:15:70:a2:fb:1c:b6:15:5e:a0:97:
                    8b:81:4c:09:28:8a:27:3b:94:bc:71:db:5b:71:37:
                    9a:2b:16:e0:6f:b5:c9:f5:4b:4f:20:ba:65:cf:af:
                    ad:ad
                Exponent: 65537 (0x10001)
        X509v3 extensions:
            X509v3 Key Usage: 
                Digital Signature, Key Encipherment
            X509v3 Basic Constraints: 
                CA:FALSE
            Netscape Cert Type: 
                SSL Server
            Netscape Comment: 
                OpenSSL Generated Server Certificate
            X509v3 Subject Key Identifier: 
                E5:25:6D:3E:AF:0D:DD:3F:4C:F2:45:19:39:D5:14:DB:7E:9C:C0:AD
            X509v3 Authority Key Identifier: 
                keyid:F4:A7:C0:CC:91:46:AF:64:F3:91:F2:27:F8:C8:B2:6F:8A:87:32:73
                DirName:/C=DE/ST=Hessen/O=privacyidea/CN=CA001
                serial:FB:C8:EB:AC:83:CD:12:07

            X509v3 Extended Key Usage: 
                TLS Web Server Authentication
    Signature Algorithm: sha1WithRSAEncryption
         06:5a:5f:35:29:7a:9a:31:6c:57:c3:e4:3c:ac:7a:6d:d0:ea:
         e0:ac:b6:bb:46:2a:b6:a0:e3:63:81:92:f8:d6:d3:1c:e8:ad:
         ec:4b:06:dc:85:ae:1d:1a:c3:c8:81:43:a2:c6:23:3e:12:7e:
         5f:93:d3:42:8c:d9:67:40:94:32:8c:aa:60:05:e5:61:e2:fd:
         7a:dc:32:69:50:0a:22:dc:85:41:72:0d:00:fb:5b:06:be:42:
         03:15:ed:29:c6:ba:12:c0:71:bd:0c:fa:97:47:55:f3:f4:b7:
         f1:77:88:2a:b3:5a:dd:aa:60:0e:60:13:0e:e7:e7:16:da:71:
         1c:2b:3b:b8:fc:0b:09:d1:95:ee:61:61:aa:e7:87:b7:03:ba:
         6c:35:ff:f0:76:78:ea:51:10:ba:86:91:8d:5a:c5:f4:cb:43:
         14:49:38:10:f7:78:30:30:e2:2a:6d:dd:cb:d7:bf:e9:9a:5f:
         00:e8:8e:46:0f:7c:e4:67:41:1a:7a:14:a3:07:1d:ee:ce:6f:
         6d:a8:94:fd:fa:16:59:c9:48:17:30:1f:21:84:8d:1f:50:86:
         c6:93:d0:89:58:6d:28:2b:bc:46:42:79:15:86:ae:a4:99:11:
         4f:7b:d3:65:34:fa:83:34:d1:83:09:03:ce:45:a9:ae:44:56:
         8f:8d:d1:aa
-----BEGIN CERTIFICATE-----
MIIECTCCAvGgAwIBAgIEEAAAyzANBgkqhkiG9w0BAQUFADBEMQswCQYDVQQGEwJE
RTEPMA0GA1UECAwGSGVzc2VuMRQwEgYDVQQKDAtwcml2YWN5aWRlYTEOMAwGA1UE
AwwFQ0EwMDEwHhcNMTYwMTI1MTcwMzUwWhcNMTcwMTI0MTcwMzUwWjA3MRMwEQYD
VQQDEwpTdGV2ZSBUZXN0MSAwHgYJKoZIhvcNAQkBFhFzdGV2ZUBvcGVuc3NsLm9y
ZzCCASIwDQYJKoZIhvcNAQEBBQADggEPADCCAQoCggEBANKBiSBRSA9z9BEyJNUf
HP1c9bbmxfBSgdzSr2ZKfJMxYVyv0W0GcANgfHIMiN1JzZ4CbNJa11MP89q+aWS1
DwwA47NQR6Ozm7oTUNZYWkurOeARygonZwN4ImZtkh4bXEmu5mvRjjudBtPGrE1T
QxCr6JbBh4KXmY8g05kSNzGE4Yr/KQNfIpA+f5vgIMGt3K5MORoxlhcCjLLZtA0g
Ept9hlT9M/3BKmJG+GCWz24BbyLfE0fnl+wFciOjYvj676yccvA3yy83z5CoJ1GG
xtd4CI9+JaIVcKL7HLYVXqCXi4FMCSiKJzuUvHHbW3E3misW4G+1yfVLTyC6Zc+v
ra0CAwEAAaOCAQ4wggEKMAsGA1UdDwQEAwIFoDAJBgNVHRMEAjAAMBEGCWCGSAGG
+EIBAQQEAwIGQDAzBglghkgBhvhCAQ0EJhYkT3BlblNTTCBHZW5lcmF0ZWQgU2Vy
dmVyIENlcnRpZmljYXRlMB0GA1UdDgQWBBTlJW0+rw3dP0zyRRk51RTbfpzArTB0
BgNVHSMEbTBrgBT0p8DMkUavZPOR8if4yLJviocyc6FIpEYwRDELMAkGA1UEBhMC
REUxDzANBgNVBAgMBkhlc3NlbjEUMBIGA1UECgwLcHJpdmFjeWlkZWExDjAMBgNV
BAMMBUNBMDAxggkA+8jrrIPNEgcwEwYDVR0lBAwwCgYIKwYBBQUHAwEwDQYJKoZI
hvcNAQEFBQADggEBAAZaXzUpepoxbFfD5Dysem3Q6uCstrtGKrag42OBkvjW0xzo
rexLBtyFrh0aw8iBQ6LGIz4Sfl+T00KM2WdAlDKMqmAF5WHi/XrcMmlQCiLchUFy
DQD7Wwa+QgMV7SnGuhLAcb0M+pdHVfP0t/F3iCqzWt2qYA5gEw7n5xbacRwrO7j8
CwnRle5hYarnh7cDumw1//B2eOpRELqGkY1axfTLQxRJOBD3eDAw4ipt3cvXv+ma
XwDojkYPfORnQRp6FKMHHe7Ob22olP36FlnJSBcwHyGEjR9QhsaT0IlYbSgrvEZC
eRWGrqSZEU9702U0+oM00YMJA85Fqa5EVo+N0ao=
-----END CERTIFICATE-----
