Certificate:
    Data:
        Version: 3 (0x2)
        Serial Number: 268435655 (0x100000c7)
    Signature Algorithm: sha1WithRSAEncryption
        Issuer: C=DE, ST=Hessen, O=privacyidea, CN=CA001
        Validity
            Not Before: Feb  8 22:43:10 2016 GMT
            Not After : Feb  7 22:43:10 2017 GMT
        Subject: C=DE, ST=Hessen, O=privacyidea, CN=requester.localdomain
        Subject Public Key Info:
            Public Key Algorithm: rsaEncryption
                Public-Key: (2048 bit)
                Modulus:
                    00:cd:be:14:4f:fa:ce:01:3f:42:22:1b:1d:9c:af:
                    dd:92:d2:7f:db:6c:b7:3e:39:43:43:6b:13:03:f1:
                    05:f4:07:74:bc:76:69:28:0b:af:19:8e:d7:fc:e3:
                    cd:c6:58:f2:ca:7f:08:6d:53:fc:07:02:44:24:c6:
                    b4:34:4c:8c:04:fe:33:0e:40:e2:20:ba:02:73:5a:
                    f7:f5:4f:63:6e:cc:c6:b6:df:54:1d:37:39:7d:51:
                    36:26:5f:bd:dc:3f:a8:8b:6b:a2:ae:b6:9d:d6:21:
                    e7:df:41:b8:7a:28:2a:68:48:ca:a8:2d:ed:e1:e9:
                    46:5e:5a:72:6d:b4:84:38:87:91:fd:94:11:0b:28:
                    84:c6:c2:2f:2a:fb:01:f9:36:7a:09:75:d1:33:88:
                    3c:73:41:5b:c8:bf:94:89:70:a1:f0:c0:b9:2e:50:
                    53:1e:b1:17:64:69:f4:2d:81:e0:a9:0d:0e:32:e9:
                    ba:55:8a:85:f1:1b:6f:49:79:b4:7f:88:c3:0d:3e:
                    54:88:9b:3d:1f:38:8c:04:f3:ee:6a:63:2b:f5:c6:
                    db:b4:83:aa:c4:78:41:3a:7d:4b:e1:c8:3e:71:ca:
                    1b:61:59:ea:c6:c4:ca:32:5e:c9:e9:bf:12:29:e6:
                    c6:c3:63:fe:a0:55:da:7a:f1:60:98:4d:26:ed:fa:
                    70:2d
                Exponent: 65537 (0x10001)
        X509v3 extensions:
            X509v3 Key Usage: 
                Digital Signature, Key Encipherment
            X509v3 Basic Constraints: 
                CA:FALSE
            Netscape Cert Type: 
                SSL Server
            Netscape Comment: 
                OpenSSL Generated Server Certificate
            X509v3 Subject Key Identifier: 
                53:3F:ED:5D:09:07:B3:65:7B:AB:45:C9:24:5B:09:77:80:0A:96:ED
            X509v3 Authority Key Identifier: 
                keyid:F4:A7:C0:CC:91:46:AF:64:F3:91:F2:27:F8:C8:B2:6F:8A:87:32:73
                DirName:/C=DE/ST=Hessen/O=privacyidea/CN=CA001
                serial:FB:C8:EB:AC:83:CD:12:07

            X509v3 Extended Key Usage: 
                TLS Web Server Authentication
    Signature Algorithm: sha1WithRSAEncryption
         8a:b4:f8:3b:e0:e9:11:bd:eb:49:81:64:d6:be:ab:70:cf:b0:
         91:5a:86:d2:19:ae:09:f8:4d:ab:bd:b9:25:a8:b3:39:96:29:
         43:e5:69:fd:19:62:8a:fd:6a:a6:b4:98:2d:90:da:f7:fb:c5:
         38:a7:c4:a5:a6:f4:f3:a0:e0:b8:a4:97:cc:38:2e:9b:b8:17:
         ee:9a:79:cd:59:59:f9:53:1a:dc:ed:ad:76:36:38:55:f4:b6:
         00:79:c6:81:82:92:f0:bc:5f:8c:e5:e9:92:89:fd:3a:f1:85:
         06:fd:2e:c1:53:16:e4:07:d1:fe:25:13:71:f4:85:e9:a1:c3:
         0e:cf:88:95:bb:84:7d:02:91:59:3e:87:3b:63:07:d2:08:18:
         f5:35:8d:29:2f:81:84:2d:34:16:58:98:81:ad:66:cf:c7:b6:
         7c:6a:5d:3e:ef:18:3b:12:af:13:77:61:83:39:0e:47:f0:4a:
         de:f7:3b:2d:b6:98:db:ae:ae:88:6e:3f:2a:3b:b2:54:76:1f:
         ee:34:66:4d:53:65:56:b8:1c:2b:e3:be:f5:59:b2:90:8c:c0:
         c6:e8:a5:15:cd:97:9f:18:aa:7e:68:6a:04:b4:d0:3d:a4:81:
         d4:ea:85:ea:f7:19:5d:49:8b:50:3f:f7:91:ee:30:a8:02:e1:
         e0:9c:34:bf
-----BEGIN CERTIFICATE-----
MIIEJjCCAw6gAwIBAgIEEAAAxzANBgkqhkiG9w0BAQUFADBEMQswCQYDVQQGEwJE
RTEPMA0GA1UECAwGSGVzc2VuMRQwEgYDVQQKDAtwcml2YWN5aWRlYTEOMAwGA1UE
AwwFQ0EwMDEwHhcNMTYwMjA4MjI0MzEwWhcNMTcwMjA3MjI0MzEwWjBUMQswCQYD
VQQGEwJERTEPMA0GA1UECAwGSGVzc2VuMRQwEgYDVQQKDAtwcml2YWN5aWRlYTEe
MBwGA1UEAwwVcmVxdWVzdGVyLmxvY2FsZG9tYWluMIIBIjANBgkqhkiG9w0BAQEF
AAOCAQ8AMIIBCgKCAQEAzb4UT/rOAT9CIhsdnK/dktJ/22y3PjlDQ2sTA/EF9Ad0
vHZpKAuvGY7X/OPNxljyyn8IbVP8BwJEJMa0NEyMBP4zDkDiILoCc1r39U9jbszG
tt9UHTc5fVE2Jl+93D+oi2uirrad1iHn30G4eigqaEjKqC3t4elGXlpybbSEOIeR
/ZQRCyiExsIvKvsB+TZ6CXXRM4g8c0FbyL+UiXCh8MC5LlBTHrEXZGn0LYHgqQ0O
Mum6VYqF8RtvSXm0f4jDDT5UiJs9HziMBPPuamMr9cbbtIOqxHhBOn1L4cg+ccob
YVnqxsTKMl7J6b8SKebGw2P+oFXaevFgmE0m7fpwLQIDAQABo4IBDjCCAQowCwYD
VR0PBAQDAgWgMAkGA1UdEwQCMAAwEQYJYIZIAYb4QgEBBAQDAgZAMDMGCWCGSAGG
+EIBDQQmFiRPcGVuU1NMIEdlbmVyYXRlZCBTZXJ2ZXIgQ2VydGlmaWNhdGUwHQYD
VR0OBBYEFFM/7V0JB7Nle6tFySRbCXeACpbtMHQGA1UdIwRtMGuAFPSnwMyRRq9k
85HyJ/jIsm+KhzJzoUikRjBEMQswCQYDVQQGEwJERTEPMA0GA1UECAwGSGVzc2Vu
MRQwEgYDVQQKDAtwcml2YWN5aWRlYTEOMAwGA1UEAwwFQ0EwMDGCCQD7yOusg80S
BzATBgNVHSUEDDAKBggrBgEFBQcDATANBgkqhkiG9w0BAQUFAAOCAQEAirT4O+Dp
Eb3rSYFk1r6rcM+wkVqG0hmuCfhNq725JaizOZYpQ+Vp/Rliiv1qprSYLZDa9/vF
OKfEpab086DguKSXzDgum7gX7pp5zVlZ+VMa3O2tdjY4VfS2AHnGgYKS8LxfjOXp
kon9OvGFBv0uwVMW5AfR/iUTcfSF6aHDDs+IlbuEfQKRWT6HO2MH0ggY9TWNKS+B
hC00FliYga1mz8e2fGpdPu8YOxKvE3dhgzkOR/BK3vc7LbaY266uiG4/KjuyVHYf
7jRmTVNlVrgcK+O+9VmykIzAxuilFc2XnxiqfmhqBLTQPaSB1OqF6vcZXUmLUD/3
ke4wqALh4Jw0vw==
-----END CERTIFICATE-----
