(dp1
S'offerings'
p2
ccopy_reg
_reconstructor
p3
(ctwisted.plugin
CachedDropin
p4
c__builtin__
object
p5
NtRp6
(dp7
S'moduleName'
p8
S'xmantissa.plugins.offerings'
p9
sS'description'
p10
NsS'plugins'
p11
(lp12
g3
(ctwisted.plugin
CachedPlugin
p13
g5
NtRp14
(dp15
S'provided'
p16
(lp17
ctwisted.plugin
IPlugin
p18
acxmantissa.ixmantissa
IOffering
p19
asS'dropin'
p20
g6
sS'name'
p21
S'peopleOffering'
p22
sg10
S'\n    A set of functionality which can be added to a Mantissa server.\n\n    @see L{ixmantissa.IOffering}\n    '
p23
sbasbsS'baseoff'
p24
g3
(g4
g5
NtRp25
(dp26
g8
S'xmantissa.plugins.baseoff'
p27
sg10
Nsg11
(lp28
g3
(g13
g5
NtRp29
(dp30
g16
(lp31
g18
ag19
asg20
g25
sg21
S'ampOffering'
p32
sg10
g23
sbag3
(g13
g5
NtRp33
(dp34
g16
(lp35
g18
ag19
asg20
g25
sg21
S'baseOffering'
p36
sg10
g23
sbasbsS'free_signup'
p37
g3
(g4
g5
NtRp38
(dp39
g8
S'xmantissa.plugins.free_signup'
p40
sg10
Nsg11
(lp41
g3
(g13
g5
NtRp42
(dp43
g16
(lp44
cxmantissa.ixmantissa
ISignupMechanism
p45
ag18
asg20
g38
sg21
S'freeTicket'
p46
sg10
S'\n    I am a Twisted plugin helper.\n\n    Instantiate me at module scope in a xmantissa.plugins submodule, including\n    a name and description for the administrator.\n    '
p47
sbag3
(g13
g5
NtRp48
(dp49
g16
(lp50
g45
ag18
asg20
g38
sg21
S'userInfo'
p51
sg10
g47
sbasbsS'adminoff'
p52
g3
(g4
g5
NtRp53
(dp54
g8
S'xmantissa.plugins.adminoff'
p55
sg10
Nsg11
(lp56
g3
(g13
g5
NtRp57
(dp58
g16
(lp59
g18
ag19
asg20
g53
sg21
S'adminOffering'
p60
sg10
g23
sbasbs.