Certificate:
    Data:
        Version: 3 (0x2)
        Serial Number: 268435653 (0x100000c5)
    Signature Algorithm: sha1WithRSAEncryption
        Issuer: C=DE, ST=Hessen, O=privacyidea, CN=CA001
        Validity
            Not Before: Feb  8 22:40:36 2016 GMT
            Not After : Feb  7 22:40:36 2017 GMT
        Subject: C=DE, ST=Hessen, O=privacyidea, CN=usercert
        Subject Public Key Info:
            Public Key Algorithm: rsaEncryption
                Public-Key: (2048 bit)
                Modulus:
                    00:dc:2f:d1:5f:29:97:d4:7c:c3:53:c8:30:bd:4b:
                    67:70:2c:24:6b:b8:5e:eb:21:7a:48:12:56:7c:81:
                    5c:48:75:b6:68:eb:f6:f2:98:4e:50:51:d1:7f:6c:
                    73:f3:0a:a7:ae:be:48:5e:e5:d6:e1:d9:2a:7c:32:
                    6e:4e:fd:08:f6:5a:54:49:23:73:c3:b9:07:18:d1:
                    ef:b3:ac:f8:8a:dc:94:96:a4:90:3a:8e:74:df:e6:
                    0d:37:1b:bd:5b:b7:25:1a:56:39:da:6f:91:aa:5e:
                    1c:74:f3:f9:7c:14:01:83:12:65:76:c7:bb:fe:36:
                    5b:95:e9:72:65:83:ed:3e:98:30:71:fa:87:dd:a3:
                    36:5a:30:03:2e:26:e0:61:d1:bf:02:3f:b6:06:1f:
                    4a:89:28:1c:5c:a2:ff:4e:be:94:e6:8c:e0:da:82:
                    f1:9d:29:32:48:30:73:b4:04:f6:42:1e:be:f7:e2:
                    32:32:27:3c:9d:89:2f:70:3e:85:9a:6f:5c:c5:09:
                    c0:8c:32:2f:72:22:c9:d2:95:1f:b6:ac:72:60:72:
                    b7:82:4d:6b:ce:5b:e3:00:d0:d2:2f:58:c6:e0:10:
                    e5:51:ca:4d:3b:2e:e6:7e:ab:84:d6:56:f1:93:35:
                    a0:93:64:26:81:75:2f:91:b5:16:06:38:0b:db:cc:
                    2d:07
                Exponent: 65537 (0x10001)
        X509v3 extensions:
            X509v3 Key Usage: 
                Digital Signature, Key Encipherment
            X509v3 Basic Constraints: 
                CA:FALSE
            Netscape Cert Type: 
                SSL Server
            Netscape Comment: 
                OpenSSL Generated Server Certificate
            X509v3 Subject Key Identifier: 
                FC:14:D1:F0:4B:8D:00:90:F2:F5:B8:71:9E:4E:97:C3:92:54:AD:0B
            X509v3 Authority Key Identifier: 
                keyid:F4:A7:C0:CC:91:46:AF:64:F3:91:F2:27:F8:C8:B2:6F:8A:87:32:73
                DirName:/C=DE/ST=Hessen/O=privacyidea/CN=CA001
                serial:FB:C8:EB:AC:83:CD:12:07

            X509v3 Extended Key Usage: 
                TLS Web Server Authentication
    Signature Algorithm: sha1WithRSAEncryption
         10:30:f6:6c:f0:4b:7c:7b:fe:d2:21:60:61:50:d0:17:bc:d0:
         50:9b:bd:33:f1:e0:63:c2:29:f8:e8:26:24:ff:6d:a3:62:4f:
         7d:26:be:26:87:b9:39:7d:f7:26:58:0e:e1:10:fb:46:47:28:
         57:89:8e:02:8f:7f:2f:e8:3a:ac:22:2c:0f:d0:8f:37:63:9e:
         8a:43:b2:c4:15:b3:ba:53:c6:53:e3:84:22:5c:7f:6a:45:fc:
         b5:8f:8d:8a:a0:5a:7d:7d:b7:11:1e:44:13:a0:ff:54:ee:d5:
         2e:75:c5:41:a9:be:bd:31:5d:a9:12:e6:6f:d2:66:69:30:37:
         80:82:b8:50:a3:36:c8:f7:e5:06:9a:7f:5d:bb:6b:0c:d0:ff:
         9c:d2:8b:7d:ae:eb:4e:e1:16:89:58:d0:ae:7f:54:b9:2a:8b:
         76:c7:73:42:87:6a:8f:7f:71:3a:85:5f:95:fe:33:b3:2b:e6:
         05:62:13:55:81:c4:2f:ae:5b:07:3b:3a:1e:76:46:03:36:cf:
         65:58:57:ac:a0:43:44:fa:4c:43:35:bf:13:d8:e3:9e:a3:d4:
         ea:90:51:49:cd:e0:2a:da:25:1e:36:50:df:53:59:30:e6:f4:
         70:1c:61:9b:af:95:aa:70:75:5c:7d:6f:9d:39:38:44:0e:ad:
         c3:66:69:19
-----BEGIN CERTIFICATE-----
MIIEGTCCAwGgAwIBAgIEEAAAxTANBgkqhkiG9w0BAQUFADBEMQswCQYDVQQGEwJE
RTEPMA0GA1UECAwGSGVzc2VuMRQwEgYDVQQKDAtwcml2YWN5aWRlYTEOMAwGA1UE
AwwFQ0EwMDEwHhcNMTYwMjA4MjI0MDM2WhcNMTcwMjA3MjI0MDM2WjBHMQswCQYD
VQQGEwJERTEPMA0GA1UECAwGSGVzc2VuMRQwEgYDVQQKDAtwcml2YWN5aWRlYTER
MA8GA1UEAwwIdXNlcmNlcnQwggEiMA0GCSqGSIb3DQEBAQUAA4IBDwAwggEKAoIB
AQDcL9FfKZfUfMNTyDC9S2dwLCRruF7rIXpIElZ8gVxIdbZo6/bymE5QUdF/bHPz
Cqeuvkhe5dbh2Sp8Mm5O/Qj2WlRJI3PDuQcY0e+zrPiK3JSWpJA6jnTf5g03G71b
tyUaVjnab5GqXhx08/l8FAGDEmV2x7v+NluV6XJlg+0+mDBx+ofdozZaMAMuJuBh
0b8CP7YGH0qJKBxcov9OvpTmjODagvGdKTJIMHO0BPZCHr734jIyJzydiS9wPoWa
b1zFCcCMMi9yIsnSlR+2rHJgcreCTWvOW+MA0NIvWMbgEOVRyk07LuZ+q4TWVvGT
NaCTZCaBdS+RtRYGOAvbzC0HAgMBAAGjggEOMIIBCjALBgNVHQ8EBAMCBaAwCQYD
VR0TBAIwADARBglghkgBhvhCAQEEBAMCBkAwMwYJYIZIAYb4QgENBCYWJE9wZW5T
U0wgR2VuZXJhdGVkIFNlcnZlciBDZXJ0aWZpY2F0ZTAdBgNVHQ4EFgQU/BTR8EuN
AJDy9bhxnk6Xw5JUrQswdAYDVR0jBG0wa4AU9KfAzJFGr2TzkfIn+Miyb4qHMnOh
SKRGMEQxCzAJBgNVBAYTAkRFMQ8wDQYDVQQIDAZIZXNzZW4xFDASBgNVBAoMC3By
aXZhY3lpZGVhMQ4wDAYDVQQDDAVDQTAwMYIJAPvI66yDzRIHMBMGA1UdJQQMMAoG
CCsGAQUFBwMBMA0GCSqGSIb3DQEBBQUAA4IBAQAQMPZs8Et8e/7SIWBhUNAXvNBQ
m70z8eBjwin46CYk/22jYk99Jr4mh7k5ffcmWA7hEPtGRyhXiY4Cj38v6DqsIiwP
0I83Y56KQ7LEFbO6U8ZT44QiXH9qRfy1j42KoFp9fbcRHkQToP9U7tUudcVBqb69
MV2pEuZv0mZpMDeAgrhQozbI9+UGmn9du2sM0P+c0ot9rutO4RaJWNCuf1S5Kot2
x3NCh2qPf3E6hV+V/jOzK+YFYhNVgcQvrlsHOzoedkYDNs9lWFesoENE+kxDNb8T
2OOeo9TqkFFJzeAq2iUeNlDfU1kw5vRwHGGbr5WqcHVcfW+dOThEDq3DZmkZ
-----END CERTIFICATE-----
