Certificate:
    Data:
        Version: 3 (0x2)
        Serial Number: 268435661 (0x100000cd)
    Signature Algorithm: sha1WithRSAEncryption
        Issuer: C=DE, ST=Hessen, O=privacyidea, CN=CA001
        Validity
            Not Before: Jan 25 17:14:02 2016 GMT
            Not After : Jan 24 17:14:02 2017 GMT
        Subject: CN=selfservice,CN=user,O=realm1/emailAddress=meine
        Subject Public Key Info:
            Public Key Algorithm: rsaEncryption
                Public-Key: (2048 bit)
                Modulus:
                    00:cf:3c:d4:33:0e:12:c4:e6:da:cd:b6:56:a1:1c:
                    26:bb:26:1c:8a:4a:73:a8:58:8a:b6:1e:b3:8b:99:
                    d2:1d:07:c2:92:89:79:c0:69:d8:c8:df:28:61:98:
                    1e:b3:fe:ae:2b:bd:78:a9:f7:6e:47:dc:a3:a0:16:
                    8c:85:02:c1:4e:92:fd:72:6e:f0:c8:03:29:9b:b8:
                    00:6e:c0:83:95:c8:34:20:36:9c:b3:e5:e4:e6:76:
                    73:a3:1a:ad:40:96:e0:53:54:00:ec:76:79:9a:c6:
                    0d:7e:b6:bd:29:ec:83:f3:cb:89:a4:cb:6c:00:ba:
                    0c:c5:78:0f:ff:69:b8:94:f4:04:70:43:3f:d8:9e:
                    d7:a7:fb:5d:ce:75:8e:da:e7:c4:07:b1:9d:de:6f:
                    88:4b:b6:4d:9a:cf:f9:bc:fa:9f:cd:32:6d:f6:3a:
                    0b:0d:23:42:78:ec:97:42:bf:0e:4d:60:56:e1:d3:
                    02:f2:19:cb:84:57:90:e5:70:a1:a2:83:35:86:e2:
                    da:86:9f:f9:8a:c4:79:b3:52:28:da:cb:bb:34:ca:
                    d3:da:91:4a:cf:8d:76:a2:b2:6b:9b:f9:96:fd:09:
                    2a:da:11:23:4d:f0:cb:d6:b2:b1:0e:12:6c:9a:19:
                    65:98:87:ca:e4:ee:24:ce:44:ac:90:8f:9d:1b:c5:
                    2a:9d
                Exponent: 65537 (0x10001)
        X509v3 extensions:
            X509v3 Key Usage: 
                Digital Signature, Key Encipherment
            X509v3 Basic Constraints: 
                CA:FALSE
            Netscape Cert Type: 
                SSL Server
            Netscape Comment: 
                OpenSSL Generated Server Certificate
            X509v3 Subject Key Identifier: 
                4D:07:90:AD:FF:1D:0D:E7:1A:DD:D6:2E:FA:BA:34:CB:AA:1F:24:C6
            X509v3 Authority Key Identifier: 
                keyid:F4:A7:C0:CC:91:46:AF:64:F3:91:F2:27:F8:C8:B2:6F:8A:87:32:73
                DirName:/C=DE/ST=Hessen/O=privacyidea/CN=CA001
                serial:FB:C8:EB:AC:83:CD:12:07

            X509v3 Extended Key Usage: 
                TLS Web Server Authentication
    Signature Algorithm: sha1WithRSAEncryption
         bc:c2:59:df:b1:80:90:77:eb:9b:3f:f1:2f:23:87:5c:9e:7a:
         78:14:0b:ff:0f:62:e2:8b:7b:b0:4e:60:8c:94:c2:04:ea:c0:
         d2:36:4e:32:99:3f:c6:de:1f:c0:35:07:9a:b2:39:af:15:59:
         55:06:62:9b:35:f1:4c:de:4f:4e:d4:77:21:ab:0f:e9:e1:1c:
         4c:b9:2b:ee:7e:77:73:50:42:c8:12:07:11:c6:bb:1e:41:e0:
         81:98:c0:85:2f:05:42:73:cc:7c:e3:80:b2:c9:85:09:17:e6:
         13:6a:e3:69:d1:a3:c5:ba:8b:7c:64:b4:79:a5:74:5a:c9:2b:
         ab:a6:3e:38:90:23:0d:9f:ed:8e:59:53:e7:f6:b9:6d:4b:78:
         85:f7:93:9f:1e:55:4c:7c:e8:51:a6:dd:2d:a6:2b:b4:64:0f:
         2b:f8:98:71:67:21:02:22:87:3c:84:85:c8:6d:e8:0a:e2:35:
         98:77:ee:ea:18:4f:7e:4c:e4:83:df:e5:2e:2e:de:bc:57:b6:
         5d:08:52:97:15:1a:6a:bd:d3:13:c4:4d:bd:3f:2b:9c:74:b2:
         06:3e:d7:e7:02:64:cd:7c:2f:7d:42:e8:fb:6a:f9:ee:70:f6:
         a5:05:e4:48:6b:89:27:d3:4c:ef:06:d6:9f:af:73:de:34:45:
         1e:3a:62:16
-----BEGIN CERTIFICATE-----
MIIEDzCCAvegAwIBAgIEEAAAzTANBgkqhkiG9w0BAQUFADBEMQswCQYDVQQGEwJE
RTEPMA0GA1UECAwGSGVzc2VuMRQwEgYDVQQKDAtwcml2YWN5aWRlYTEOMAwGA1UE
AwwFQ0EwMDEwHhcNMTYwMTI1MTcxNDAyWhcNMTcwMTI0MTcxNDAyWjA9MSUwIwYD
VQQDExxzZWxmc2VydmljZSxDTj11c2VyLE89cmVhbG0xMRQwEgYJKoZIhvcNAQkB
FgVtZWluZTCCASIwDQYJKoZIhvcNAQEBBQADggEPADCCAQoCggEBAM881DMOEsTm
2s22VqEcJrsmHIpKc6hYirYes4uZ0h0HwpKJecBp2MjfKGGYHrP+riu9eKn3bkfc
o6AWjIUCwU6S/XJu8MgDKZu4AG7Ag5XINCA2nLPl5OZ2c6MarUCW4FNUAOx2eZrG
DX62vSnsg/PLiaTLbAC6DMV4D/9puJT0BHBDP9ie16f7Xc51jtrnxAexnd5viEu2
TZrP+bz6n80ybfY6Cw0jQnjsl0K/Dk1gVuHTAvIZy4RXkOVwoaKDNYbi2oaf+YrE
ebNSKNrLuzTK09qRSs+NdqKya5v5lv0JKtoRI03wy9aysQ4SbJoZZZiHyuTuJM5E
rJCPnRvFKp0CAwEAAaOCAQ4wggEKMAsGA1UdDwQEAwIFoDAJBgNVHRMEAjAAMBEG
CWCGSAGG+EIBAQQEAwIGQDAzBglghkgBhvhCAQ0EJhYkT3BlblNTTCBHZW5lcmF0
ZWQgU2VydmVyIENlcnRpZmljYXRlMB0GA1UdDgQWBBRNB5Ct/x0N5xrd1i76ujTL
qh8kxjB0BgNVHSMEbTBrgBT0p8DMkUavZPOR8if4yLJviocyc6FIpEYwRDELMAkG
A1UEBhMCREUxDzANBgNVBAgMBkhlc3NlbjEUMBIGA1UECgwLcHJpdmFjeWlkZWEx
DjAMBgNVBAMMBUNBMDAxggkA+8jrrIPNEgcwEwYDVR0lBAwwCgYIKwYBBQUHAwEw
DQYJKoZIhvcNAQEFBQADggEBALzCWd+xgJB365s/8S8jh1yeengUC/8PYuKLe7BO
YIyUwgTqwNI2TjKZP8beH8A1B5qyOa8VWVUGYps18UzeT07UdyGrD+nhHEy5K+5+
d3NQQsgSBxHGux5B4IGYwIUvBUJzzHzjgLLJhQkX5hNq42nRo8W6i3xktHmldFrJ
K6umPjiQIw2f7Y5ZU+f2uW1LeIX3k58eVUx86FGm3S2mK7RkDyv4mHFnIQIihzyE
hcht6AriNZh37uoYT35M5IPf5S4u3rxXtl0IUpcVGmq90xPETb0/K5x0sgY+1+cC
ZM18L31C6Ptq+e5w9qUF5EhriSfTTO8G1p+vc940RR46YhY=
-----END CERTIFICATE-----
