Certificate:
    Data:
        Version: 3 (0x2)
        Serial Number: 268435651 (0x100000c3)
    Signature Algorithm: sha1WithRSAEncryption
        Issuer: C=DE, ST=Hessen, O=privacyidea, CN=CA001
        Validity
            Not Before: Feb  8 22:39:07 2016 GMT
            Not After : Feb  7 22:39:07 2017 GMT
        Subject: C=DE, ST=Hessen, O=privacyidea, CN=requester.localdomain
        Subject Public Key Info:
            Public Key Algorithm: rsaEncryption
                Public-Key: (2048 bit)
                Modulus:
                    00:cd:be:14:4f:fa:ce:01:3f:42:22:1b:1d:9c:af:
                    dd:92:d2:7f:db:6c:b7:3e:39:43:43:6b:13:03:f1:
                    05:f4:07:74:bc:76:69:28:0b:af:19:8e:d7:fc:e3:
                    cd:c6:58:f2:ca:7f:08:6d:53:fc:07:02:44:24:c6:
                    b4:34:4c:8c:04:fe:33:0e:40:e2:20:ba:02:73:5a:
                    f7:f5:4f:63:6e:cc:c6:b6:df:54:1d:37:39:7d:51:
                    36:26:5f:bd:dc:3f:a8:8b:6b:a2:ae:b6:9d:d6:21:
                    e7:df:41:b8:7a:28:2a:68:48:ca:a8:2d:ed:e1:e9:
                    46:5e:5a:72:6d:b4:84:38:87:91:fd:94:11:0b:28:
                    84:c6:c2:2f:2a:fb:01:f9:36:7a:09:75:d1:33:88:
                    3c:73:41:5b:c8:bf:94:89:70:a1:f0:c0:b9:2e:50:
                    53:1e:b1:17:64:69:f4:2d:81:e0:a9:0d:0e:32:e9:
                    ba:55:8a:85:f1:1b:6f:49:79:b4:7f:88:c3:0d:3e:
                    54:88:9b:3d:1f:38:8c:04:f3:ee:6a:63:2b:f5:c6:
                    db:b4:83:aa:c4:78:41:3a:7d:4b:e1:c8:3e:71:ca:
                    1b:61:59:ea:c6:c4:ca:32:5e:c9:e9:bf:12:29:e6:
                    c6:c3:63:fe:a0:55:da:7a:f1:60:98:4d:26:ed:fa:
                    70:2d
                Exponent: 65537 (0x10001)
        X509v3 extensions:
            X509v3 Key Usage: 
                Digital Signature, Key Encipherment
            X509v3 Basic Constraints: 
                CA:FALSE
            Netscape Cert Type: 
                SSL Server
            Netscape Comment: 
                OpenSSL Generated Server Certificate
            X509v3 Subject Key Identifier: 
                53:3F:ED:5D:09:07:B3:65:7B:AB:45:C9:24:5B:09:77:80:0A:96:ED
            X509v3 Authority Key Identifier: 
                keyid:F4:A7:C0:CC:91:46:AF:64:F3:91:F2:27:F8:C8:B2:6F:8A:87:32:73
                DirName:/C=DE/ST=Hessen/O=privacyidea/CN=CA001
                serial:FB:C8:EB:AC:83:CD:12:07

            X509v3 Extended Key Usage: 
                TLS Web Server Authentication
    Signature Algorithm: sha1WithRSAEncryption
         89:a0:3b:79:af:90:6c:f9:ba:f2:79:ec:c5:6b:f5:16:7e:a5:
         d6:e1:fe:23:2b:2d:2b:3f:f2:6c:dd:1e:16:79:a1:da:13:de:
         1d:6e:1a:7f:42:45:93:a1:02:11:62:48:f9:8f:a7:e2:04:e5:
         d9:80:fa:aa:26:e5:04:63:a8:97:29:0b:49:60:9e:02:ba:01:
         78:f3:04:65:b4:35:ea:0d:ef:8f:b6:69:2c:cd:76:ba:ff:e0:
         57:13:a7:8d:9d:21:e4:fe:d3:76:02:b0:4f:f7:ec:33:4f:d2:
         29:bf:59:19:d0:9e:b4:4d:bf:99:78:c7:9b:f4:2a:b1:57:cd:
         1d:8b:d8:5c:10:8f:58:3a:76:48:28:67:e6:ea:a0:39:96:c1:
         0d:9a:52:a4:82:85:c0:a6:65:6f:d5:b4:b7:7c:82:68:3f:6b:
         4a:e4:fe:bc:47:8c:5e:bb:9d:44:54:c4:0a:27:73:8c:10:b8:
         a7:41:80:90:7e:8a:a0:47:e2:ef:63:55:d2:b4:82:49:bb:c5:
         f3:c0:28:e3:ea:e6:44:49:87:43:a3:e7:d6:01:8b:93:c6:07:
         75:d6:84:ea:d4:14:34:4f:1b:ca:13:5f:29:db:49:bc:6f:bd:
         8f:a8:45:bf:a2:6b:85:1d:24:d1:5c:f3:05:81:0a:9c:1b:23:
         cf:8b:a3:c0
-----BEGIN CERTIFICATE-----
MIIEJjCCAw6gAwIBAgIEEAAAwzANBgkqhkiG9w0BAQUFADBEMQswCQYDVQQGEwJE
RTEPMA0GA1UECAwGSGVzc2VuMRQwEgYDVQQKDAtwcml2YWN5aWRlYTEOMAwGA1UE
AwwFQ0EwMDEwHhcNMTYwMjA4MjIzOTA3WhcNMTcwMjA3MjIzOTA3WjBUMQswCQYD
VQQGEwJERTEPMA0GA1UECAwGSGVzc2VuMRQwEgYDVQQKDAtwcml2YWN5aWRlYTEe
MBwGA1UEAwwVcmVxdWVzdGVyLmxvY2FsZG9tYWluMIIBIjANBgkqhkiG9w0BAQEF
AAOCAQ8AMIIBCgKCAQEAzb4UT/rOAT9CIhsdnK/dktJ/22y3PjlDQ2sTA/EF9Ad0
vHZpKAuvGY7X/OPNxljyyn8IbVP8BwJEJMa0NEyMBP4zDkDiILoCc1r39U9jbszG
tt9UHTc5fVE2Jl+93D+oi2uirrad1iHn30G4eigqaEjKqC3t4elGXlpybbSEOIeR
/ZQRCyiExsIvKvsB+TZ6CXXRM4g8c0FbyL+UiXCh8MC5LlBTHrEXZGn0LYHgqQ0O
Mum6VYqF8RtvSXm0f4jDDT5UiJs9HziMBPPuamMr9cbbtIOqxHhBOn1L4cg+ccob
YVnqxsTKMl7J6b8SKebGw2P+oFXaevFgmE0m7fpwLQIDAQABo4IBDjCCAQowCwYD
VR0PBAQDAgWgMAkGA1UdEwQCMAAwEQYJYIZIAYb4QgEBBAQDAgZAMDMGCWCGSAGG
+EIBDQQmFiRPcGVuU1NMIEdlbmVyYXRlZCBTZXJ2ZXIgQ2VydGlmaWNhdGUwHQYD
VR0OBBYEFFM/7V0JB7Nle6tFySRbCXeACpbtMHQGA1UdIwRtMGuAFPSnwMyRRq9k
85HyJ/jIsm+KhzJzoUikRjBEMQswCQYDVQQGEwJERTEPMA0GA1UECAwGSGVzc2Vu
MRQwEgYDVQQKDAtwcml2YWN5aWRlYTEOMAwGA1UEAwwFQ0EwMDGCCQD7yOusg80S
BzATBgNVHSUEDDAKBggrBgEFBQcDATANBgkqhkiG9w0BAQUFAAOCAQEAiaA7ea+Q
bPm68nnsxWv1Fn6l1uH+IystKz/ybN0eFnmh2hPeHW4af0JFk6ECEWJI+Y+n4gTl
2YD6qiblBGOolykLSWCeAroBePMEZbQ16g3vj7ZpLM12uv/gVxOnjZ0h5P7TdgKw
T/fsM0/SKb9ZGdCetE2/mXjHm/QqsVfNHYvYXBCPWDp2SChn5uqgOZbBDZpSpIKF
wKZlb9W0t3yCaD9rSuT+vEeMXrudRFTECidzjBC4p0GAkH6KoEfi72NV0rSCSbvF
88Ao4+rmREmHQ6Pn1gGLk8YHddaE6tQUNE8byhNfKdtJvG+9j6hFv6JrhR0k0Vzz
BYEKnBsjz4ujwA==
-----END CERTIFICATE-----
