Certificate:
    Data:
        Version: 3 (0x2)
        Serial Number: 268435657 (0x100000c9)
    Signature Algorithm: sha1WithRSAEncryption
        Issuer: C=DE, ST=Hessen, O=privacyidea, CN=CA001
        Validity
            Not Before: Jan 25 17:03:49 2016 GMT
            Not After : Jan 24 17:03:49 2017 GMT
        Subject: C=DE, ST=Hessen, O=privacyidea, CN=requester.localdomain
        Subject Public Key Info:
            Public Key Algorithm: rsaEncryption
                Public-Key: (2048 bit)
                Modulus:
                    00:cd:be:14:4f:fa:ce:01:3f:42:22:1b:1d:9c:af:
                    dd:92:d2:7f:db:6c:b7:3e:39:43:43:6b:13:03:f1:
                    05:f4:07:74:bc:76:69:28:0b:af:19:8e:d7:fc:e3:
                    cd:c6:58:f2:ca:7f:08:6d:53:fc:07:02:44:24:c6:
                    b4:34:4c:8c:04:fe:33:0e:40:e2:20:ba:02:73:5a:
                    f7:f5:4f:63:6e:cc:c6:b6:df:54:1d:37:39:7d:51:
                    36:26:5f:bd:dc:3f:a8:8b:6b:a2:ae:b6:9d:d6:21:
                    e7:df:41:b8:7a:28:2a:68:48:ca:a8:2d:ed:e1:e9:
                    46:5e:5a:72:6d:b4:84:38:87:91:fd:94:11:0b:28:
                    84:c6:c2:2f:2a:fb:01:f9:36:7a:09:75:d1:33:88:
                    3c:73:41:5b:c8:bf:94:89:70:a1:f0:c0:b9:2e:50:
                    53:1e:b1:17:64:69:f4:2d:81:e0:a9:0d:0e:32:e9:
                    ba:55:8a:85:f1:1b:6f:49:79:b4:7f:88:c3:0d:3e:
                    54:88:9b:3d:1f:38:8c:04:f3:ee:6a:63:2b:f5:c6:
                    db:b4:83:aa:c4:78:41:3a:7d:4b:e1:c8:3e:71:ca:
                    1b:61:59:ea:c6:c4:ca:32:5e:c9:e9:bf:12:29:e6:
                    c6:c3:63:fe:a0:55:da:7a:f1:60:98:4d:26:ed:fa:
                    70:2d
                Exponent: 65537 (0x10001)
        X509v3 extensions:
            X509v3 Key Usage: 
                Digital Signature, Key Encipherment
            X509v3 Basic Constraints: 
                CA:FALSE
            Netscape Cert Type: 
                SSL Server
            Netscape Comment: 
                OpenSSL Generated Server Certificate
            X509v3 Subject Key Identifier: 
                53:3F:ED:5D:09:07:B3:65:7B:AB:45:C9:24:5B:09:77:80:0A:96:ED
            X509v3 Authority Key Identifier: 
                keyid:F4:A7:C0:CC:91:46:AF:64:F3:91:F2:27:F8:C8:B2:6F:8A:87:32:73
                DirName:/C=DE/ST=Hessen/O=privacyidea/CN=CA001
                serial:FB:C8:EB:AC:83:CD:12:07

            X509v3 Extended Key Usage: 
                TLS Web Server Authentication
    Signature Algorithm: sha1WithRSAEncryption
         71:55:f5:7b:41:a5:b3:2b:03:2b:a9:09:e7:75:61:ba:55:69:
         60:e3:53:48:59:ec:06:b3:34:44:27:7b:26:f2:59:73:a7:bf:
         5d:ee:19:2f:65:9d:f2:c0:f3:24:9c:36:be:bb:0c:12:4c:8d:
         79:33:e8:34:f8:14:bd:9b:d3:73:61:c5:70:bb:de:1c:df:29:
         b3:f1:02:4a:d6:d9:3f:13:8c:e0:24:54:ea:97:bf:05:85:65:
         74:ca:24:0c:d7:af:2b:7b:d4:83:cd:0b:8e:d0:a1:de:4b:ec:
         7b:e7:21:69:81:33:0d:56:26:a0:74:42:7c:9e:9d:c2:42:65:
         1c:17:3c:a0:6d:11:98:9a:46:92:4b:aa:27:f5:d5:32:e8:09:
         5c:1e:f1:33:9c:f8:d1:d3:5e:52:44:5d:b9:26:6c:77:4a:72:
         61:96:38:74:b0:0e:1f:ce:11:38:f3:8f:a8:9d:34:dc:21:26:
         49:7d:95:6c:13:aa:8f:a3:a9:1d:be:df:56:19:67:f4:27:ab:
         40:91:fd:3b:f0:99:cc:fc:d6:8b:0a:67:9e:85:8c:bb:2f:c3:
         0d:ac:2d:ea:88:29:30:a1:d2:e7:25:14:f4:66:d6:27:f3:42:
         3c:1b:39:7d:cf:c0:d6:4b:d7:55:a5:11:d2:3a:5a:fc:51:49:
         87:94:54:46
-----BEGIN CERTIFICATE-----
MIIEJjCCAw6gAwIBAgIEEAAAyTANBgkqhkiG9w0BAQUFADBEMQswCQYDVQQGEwJE
RTEPMA0GA1UECAwGSGVzc2VuMRQwEgYDVQQKDAtwcml2YWN5aWRlYTEOMAwGA1UE
AwwFQ0EwMDEwHhcNMTYwMTI1MTcwMzQ5WhcNMTcwMTI0MTcwMzQ5WjBUMQswCQYD
VQQGEwJERTEPMA0GA1UECAwGSGVzc2VuMRQwEgYDVQQKDAtwcml2YWN5aWRlYTEe
MBwGA1UEAwwVcmVxdWVzdGVyLmxvY2FsZG9tYWluMIIBIjANBgkqhkiG9w0BAQEF
AAOCAQ8AMIIBCgKCAQEAzb4UT/rOAT9CIhsdnK/dktJ/22y3PjlDQ2sTA/EF9Ad0
vHZpKAuvGY7X/OPNxljyyn8IbVP8BwJEJMa0NEyMBP4zDkDiILoCc1r39U9jbszG
tt9UHTc5fVE2Jl+93D+oi2uirrad1iHn30G4eigqaEjKqC3t4elGXlpybbSEOIeR
/ZQRCyiExsIvKvsB+TZ6CXXRM4g8c0FbyL+UiXCh8MC5LlBTHrEXZGn0LYHgqQ0O
Mum6VYqF8RtvSXm0f4jDDT5UiJs9HziMBPPuamMr9cbbtIOqxHhBOn1L4cg+ccob
YVnqxsTKMl7J6b8SKebGw2P+oFXaevFgmE0m7fpwLQIDAQABo4IBDjCCAQowCwYD
VR0PBAQDAgWgMAkGA1UdEwQCMAAwEQYJYIZIAYb4QgEBBAQDAgZAMDMGCWCGSAGG
+EIBDQQmFiRPcGVuU1NMIEdlbmVyYXRlZCBTZXJ2ZXIgQ2VydGlmaWNhdGUwHQYD
VR0OBBYEFFM/7V0JB7Nle6tFySRbCXeACpbtMHQGA1UdIwRtMGuAFPSnwMyRRq9k
85HyJ/jIsm+KhzJzoUikRjBEMQswCQYDVQQGEwJERTEPMA0GA1UECAwGSGVzc2Vu
MRQwEgYDVQQKDAtwcml2YWN5aWRlYTEOMAwGA1UEAwwFQ0EwMDGCCQD7yOusg80S
BzATBgNVHSUEDDAKBggrBgEFBQcDATANBgkqhkiG9w0BAQUFAAOCAQEAcVX1e0Gl
sysDK6kJ53VhulVpYONTSFnsBrM0RCd7JvJZc6e/Xe4ZL2Wd8sDzJJw2vrsMEkyN
eTPoNPgUvZvTc2HFcLveHN8ps/ECStbZPxOM4CRU6pe/BYVldMokDNevK3vUg80L
jtCh3kvse+chaYEzDVYmoHRCfJ6dwkJlHBc8oG0RmJpGkkuqJ/XVMugJXB7xM5z4
0dNeUkRduSZsd0pyYZY4dLAOH84ROPOPqJ003CEmSX2VbBOqj6OpHb7fVhln9Cer
QJH9O/CZzPzWiwpnnoWMuy/DDawt6ogpMKHS5yUU9GbWJ/NCPBs5fc/A1kvXVaUR
0jpa/FFJh5RURg==
-----END CERTIFICATE-----
