Certificate:
    Data:
        Version: 3 (0x2)
        Serial Number: 268435652 (0x100000c4)
    Signature Algorithm: sha1WithRSAEncryption
        Issuer: C=DE, ST=Hessen, O=privacyidea, CN=CA001
        Validity
            Not Before: Feb  8 22:40:36 2016 GMT
            Not After : Feb  7 22:40:36 2017 GMT
        Subject: C=DE, ST=Hessen, O=privacyidea, CN=requester.localdomain
        Subject Public Key Info:
            Public Key Algorithm: rsaEncryption
                Public-Key: (2048 bit)
                Modulus:
                    00:cd:be:14:4f:fa:ce:01:3f:42:22:1b:1d:9c:af:
                    dd:92:d2:7f:db:6c:b7:3e:39:43:43:6b:13:03:f1:
                    05:f4:07:74:bc:76:69:28:0b:af:19:8e:d7:fc:e3:
                    cd:c6:58:f2:ca:7f:08:6d:53:fc:07:02:44:24:c6:
                    b4:34:4c:8c:04:fe:33:0e:40:e2:20:ba:02:73:5a:
                    f7:f5:4f:63:6e:cc:c6:b6:df:54:1d:37:39:7d:51:
                    36:26:5f:bd:dc:3f:a8:8b:6b:a2:ae:b6:9d:d6:21:
                    e7:df:41:b8:7a:28:2a:68:48:ca:a8:2d:ed:e1:e9:
                    46:5e:5a:72:6d:b4:84:38:87:91:fd:94:11:0b:28:
                    84:c6:c2:2f:2a:fb:01:f9:36:7a:09:75:d1:33:88:
                    3c:73:41:5b:c8:bf:94:89:70:a1:f0:c0:b9:2e:50:
                    53:1e:b1:17:64:69:f4:2d:81:e0:a9:0d:0e:32:e9:
                    ba:55:8a:85:f1:1b:6f:49:79:b4:7f:88:c3:0d:3e:
                    54:88:9b:3d:1f:38:8c:04:f3:ee:6a:63:2b:f5:c6:
                    db:b4:83:aa:c4:78:41:3a:7d:4b:e1:c8:3e:71:ca:
                    1b:61:59:ea:c6:c4:ca:32:5e:c9:e9:bf:12:29:e6:
                    c6:c3:63:fe:a0:55:da:7a:f1:60:98:4d:26:ed:fa:
                    70:2d
                Exponent: 65537 (0x10001)
        X509v3 extensions:
            X509v3 Key Usage: 
                Digital Signature, Key Encipherment
            X509v3 Basic Constraints: 
                CA:FALSE
            Netscape Cert Type: 
                SSL Server
            Netscape Comment: 
                OpenSSL Generated Server Certificate
            X509v3 Subject Key Identifier: 
                53:3F:ED:5D:09:07:B3:65:7B:AB:45:C9:24:5B:09:77:80:0A:96:ED
            X509v3 Authority Key Identifier: 
                keyid:F4:A7:C0:CC:91:46:AF:64:F3:91:F2:27:F8:C8:B2:6F:8A:87:32:73
                DirName:/C=DE/ST=Hessen/O=privacyidea/CN=CA001
                serial:FB:C8:EB:AC:83:CD:12:07

            X509v3 Extended Key Usage: 
                TLS Web Server Authentication
    Signature Algorithm: sha1WithRSAEncryption
         c0:02:02:02:05:7e:cc:d4:f2:2b:4f:cb:b8:df:88:61:5a:13:
         0a:c9:5f:2c:4b:95:00:15:47:b1:51:9d:e2:06:e7:45:75:9c:
         2f:fc:1b:fa:9f:d2:a1:21:da:8d:e9:97:8e:c7:66:f8:b6:2a:
         62:3a:20:a6:f1:b3:be:34:c2:1a:da:2e:75:7f:65:32:5b:23:
         02:57:88:3b:e1:7f:7a:95:cd:f7:f2:22:aa:47:fe:7c:f0:fc:
         10:89:4c:75:a6:bb:61:02:8b:bf:08:30:c5:04:44:cd:9b:26:
         b8:9d:44:e2:46:e1:b2:44:33:ab:03:31:40:59:e8:c2:52:ee:
         56:ee:4b:f8:f2:d6:d0:b7:b6:a1:af:92:bc:1d:6c:37:fd:c2:
         6f:73:1c:c0:fc:0e:22:14:99:63:05:f8:ad:6b:02:91:40:b2:
         3f:da:bd:db:ee:bf:44:ee:85:80:a5:81:e3:81:7d:18:94:c8:
         19:7f:c3:50:d6:53:33:24:50:dd:64:eb:0c:21:eb:79:e2:6f:
         8a:a4:42:7c:31:0a:71:5c:f3:ec:16:2e:ed:91:e7:9a:c9:d0:
         e8:0f:94:17:e1:e6:1e:b6:81:04:9f:d8:39:32:44:06:fc:12:
         fa:30:6d:6b:41:52:68:51:f5:34:4b:77:56:1f:ac:1a:a7:3d:
         36:2d:e6:d8
-----BEGIN CERTIFICATE-----
MIIEJjCCAw6gAwIBAgIEEAAAxDANBgkqhkiG9w0BAQUFADBEMQswCQYDVQQGEwJE
RTEPMA0GA1UECAwGSGVzc2VuMRQwEgYDVQQKDAtwcml2YWN5aWRlYTEOMAwGA1UE
AwwFQ0EwMDEwHhcNMTYwMjA4MjI0MDM2WhcNMTcwMjA3MjI0MDM2WjBUMQswCQYD
VQQGEwJERTEPMA0GA1UECAwGSGVzc2VuMRQwEgYDVQQKDAtwcml2YWN5aWRlYTEe
MBwGA1UEAwwVcmVxdWVzdGVyLmxvY2FsZG9tYWluMIIBIjANBgkqhkiG9w0BAQEF
AAOCAQ8AMIIBCgKCAQEAzb4UT/rOAT9CIhsdnK/dktJ/22y3PjlDQ2sTA/EF9Ad0
vHZpKAuvGY7X/OPNxljyyn8IbVP8BwJEJMa0NEyMBP4zDkDiILoCc1r39U9jbszG
tt9UHTc5fVE2Jl+93D+oi2uirrad1iHn30G4eigqaEjKqC3t4elGXlpybbSEOIeR
/ZQRCyiExsIvKvsB+TZ6CXXRM4g8c0FbyL+UiXCh8MC5LlBTHrEXZGn0LYHgqQ0O
Mum6VYqF8RtvSXm0f4jDDT5UiJs9HziMBPPuamMr9cbbtIOqxHhBOn1L4cg+ccob
YVnqxsTKMl7J6b8SKebGw2P+oFXaevFgmE0m7fpwLQIDAQABo4IBDjCCAQowCwYD
VR0PBAQDAgWgMAkGA1UdEwQCMAAwEQYJYIZIAYb4QgEBBAQDAgZAMDMGCWCGSAGG
+EIBDQQmFiRPcGVuU1NMIEdlbmVyYXRlZCBTZXJ2ZXIgQ2VydGlmaWNhdGUwHQYD
VR0OBBYEFFM/7V0JB7Nle6tFySRbCXeACpbtMHQGA1UdIwRtMGuAFPSnwMyRRq9k
85HyJ/jIsm+KhzJzoUikRjBEMQswCQYDVQQGEwJERTEPMA0GA1UECAwGSGVzc2Vu
MRQwEgYDVQQKDAtwcml2YWN5aWRlYTEOMAwGA1UEAwwFQ0EwMDGCCQD7yOusg80S
BzATBgNVHSUEDDAKBggrBgEFBQcDATANBgkqhkiG9w0BAQUFAAOCAQEAwAICAgV+
zNTyK0/LuN+IYVoTCslfLEuVABVHsVGd4gbnRXWcL/wb+p/SoSHajemXjsdm+LYq
YjogpvGzvjTCGtoudX9lMlsjAleIO+F/epXN9/Iiqkf+fPD8EIlMdaa7YQKLvwgw
xQREzZsmuJ1E4kbhskQzqwMxQFnowlLuVu5L+PLW0Le2oa+SvB1sN/3Cb3McwPwO
IhSZYwX4rWsCkUCyP9q92+6/RO6FgKWB44F9GJTIGX/DUNZTMyRQ3WTrDCHreeJv
iqRCfDEKcVzz7BYu7ZHnmsnQ6A+UF+HmHraBBJ/YOTJEBvwS+jBta0FSaFH1NEt3
Vh+sGqc9Ni3m2A==
-----END CERTIFICATE-----
