Certificate:
    Data:
        Version: 3 (0x2)
        Serial Number: 268435656 (0x100000c8)
    Signature Algorithm: sha1WithRSAEncryption
        Issuer: C=DE, ST=Hessen, O=privacyidea, CN=CA001
        Validity
            Not Before: Feb  8 13:47:37 2016 GMT
            Not After : Feb  7 13:47:37 2017 GMT
        Subject: CN=selfservice,CN=user,O=realm1/emailAddress=meine
        Subject Public Key Info:
            Public Key Algorithm: rsaEncryption
                Public-Key: (2048 bit)
                Modulus:
                    00:cf:3c:d4:33:0e:12:c4:e6:da:cd:b6:56:a1:1c:
                    26:bb:26:1c:8a:4a:73:a8:58:8a:b6:1e:b3:8b:99:
                    d2:1d:07:c2:92:89:79:c0:69:d8:c8:df:28:61:98:
                    1e:b3:fe:ae:2b:bd:78:a9:f7:6e:47:dc:a3:a0:16:
                    8c:85:02:c1:4e:92:fd:72:6e:f0:c8:03:29:9b:b8:
                    00:6e:c0:83:95:c8:34:20:36:9c:b3:e5:e4:e6:76:
                    73:a3:1a:ad:40:96:e0:53:54:00:ec:76:79:9a:c6:
                    0d:7e:b6:bd:29:ec:83:f3:cb:89:a4:cb:6c:00:ba:
                    0c:c5:78:0f:ff:69:b8:94:f4:04:70:43:3f:d8:9e:
                    d7:a7:fb:5d:ce:75:8e:da:e7:c4:07:b1:9d:de:6f:
                    88:4b:b6:4d:9a:cf:f9:bc:fa:9f:cd:32:6d:f6:3a:
                    0b:0d:23:42:78:ec:97:42:bf:0e:4d:60:56:e1:d3:
                    02:f2:19:cb:84:57:90:e5:70:a1:a2:83:35:86:e2:
                    da:86:9f:f9:8a:c4:79:b3:52:28:da:cb:bb:34:ca:
                    d3:da:91:4a:cf:8d:76:a2:b2:6b:9b:f9:96:fd:09:
                    2a:da:11:23:4d:f0:cb:d6:b2:b1:0e:12:6c:9a:19:
                    65:98:87:ca:e4:ee:24:ce:44:ac:90:8f:9d:1b:c5:
                    2a:9d
                Exponent: 65537 (0x10001)
        X509v3 extensions:
            X509v3 Key Usage: 
                Digital Signature, Key Encipherment
            X509v3 Basic Constraints: 
                CA:FALSE
            Netscape Cert Type: 
                SSL Server
            Netscape Comment: 
                OpenSSL Generated Server Certificate
            X509v3 Subject Key Identifier: 
                4D:07:90:AD:FF:1D:0D:E7:1A:DD:D6:2E:FA:BA:34:CB:AA:1F:24:C6
            X509v3 Authority Key Identifier: 
                keyid:F4:A7:C0:CC:91:46:AF:64:F3:91:F2:27:F8:C8:B2:6F:8A:87:32:73
                DirName:/C=DE/ST=Hessen/O=privacyidea/CN=CA001
                serial:FB:C8:EB:AC:83:CD:12:07

            X509v3 Extended Key Usage: 
                TLS Web Server Authentication
    Signature Algorithm: sha1WithRSAEncryption
         50:88:00:d6:b2:20:bf:99:ee:73:93:ee:4d:a7:a4:1a:ff:b4:
         c1:f1:1f:74:01:ff:88:e6:aa:ca:6c:d6:0e:88:c6:b2:b7:df:
         12:96:cb:7a:e5:03:b3:11:42:5c:a9:9a:ca:84:5a:96:e6:f7:
         f5:a0:1a:f3:9d:47:35:67:00:fc:d6:1a:75:89:a1:53:75:36:
         32:2c:6d:60:c6:2d:32:ae:57:3e:b1:9a:f4:43:e8:54:19:ad:
         5d:52:90:5f:72:5a:e9:04:3f:d3:ae:bb:cc:db:5c:c9:c4:32:
         32:28:86:5b:b8:d9:fa:5c:4f:0d:47:46:e3:7e:72:7c:c6:29:
         bd:8a:27:ee:6a:07:a7:86:fc:25:20:b4:f5:2e:54:d8:0e:b5:
         23:b7:83:d8:bf:80:d9:1d:23:d5:b7:eb:3b:cf:c7:44:1d:cb:
         61:ed:ee:33:10:17:9f:63:1e:bc:cc:3a:7d:89:44:bd:3d:32:
         e2:06:1e:45:e4:bf:36:85:9a:6e:b0:4e:7c:79:db:3b:94:df:
         4b:27:51:56:9b:8b:55:5b:10:ac:8c:f9:86:f9:32:5f:a0:3e:
         03:d8:4a:e8:15:d4:7c:3f:af:d6:d2:a2:6e:f3:f1:24:1e:e6:
         11:9f:74:35:ad:98:c0:04:10:36:7a:7d:7b:8f:8f:bd:ad:00:
         50:c0:19:24
-----BEGIN CERTIFICATE-----
MIIEDzCCAvegAwIBAgIEEAAAyDANBgkqhkiG9w0BAQUFADBEMQswCQYDVQQGEwJE
RTEPMA0GA1UECAwGSGVzc2VuMRQwEgYDVQQKDAtwcml2YWN5aWRlYTEOMAwGA1UE
AwwFQ0EwMDEwHhcNMTYwMjA4MTM0NzM3WhcNMTcwMjA3MTM0NzM3WjA9MSUwIwYD
VQQDExxzZWxmc2VydmljZSxDTj11c2VyLE89cmVhbG0xMRQwEgYJKoZIhvcNAQkB
FgVtZWluZTCCASIwDQYJKoZIhvcNAQEBBQADggEPADCCAQoCggEBAM881DMOEsTm
2s22VqEcJrsmHIpKc6hYirYes4uZ0h0HwpKJecBp2MjfKGGYHrP+riu9eKn3bkfc
o6AWjIUCwU6S/XJu8MgDKZu4AG7Ag5XINCA2nLPl5OZ2c6MarUCW4FNUAOx2eZrG
DX62vSnsg/PLiaTLbAC6DMV4D/9puJT0BHBDP9ie16f7Xc51jtrnxAexnd5viEu2
TZrP+bz6n80ybfY6Cw0jQnjsl0K/Dk1gVuHTAvIZy4RXkOVwoaKDNYbi2oaf+YrE
ebNSKNrLuzTK09qRSs+NdqKya5v5lv0JKtoRI03wy9aysQ4SbJoZZZiHyuTuJM5E
rJCPnRvFKp0CAwEAAaOCAQ4wggEKMAsGA1UdDwQEAwIFoDAJBgNVHRMEAjAAMBEG
CWCGSAGG+EIBAQQEAwIGQDAzBglghkgBhvhCAQ0EJhYkT3BlblNTTCBHZW5lcmF0
ZWQgU2VydmVyIENlcnRpZmljYXRlMB0GA1UdDgQWBBRNB5Ct/x0N5xrd1i76ujTL
qh8kxjB0BgNVHSMEbTBrgBT0p8DMkUavZPOR8if4yLJviocyc6FIpEYwRDELMAkG
A1UEBhMCREUxDzANBgNVBAgMBkhlc3NlbjEUMBIGA1UECgwLcHJpdmFjeWlkZWEx
DjAMBgNVBAMMBUNBMDAxggkA+8jrrIPNEgcwEwYDVR0lBAwwCgYIKwYBBQUHAwEw
DQYJKoZIhvcNAQEFBQADggEBAFCIANayIL+Z7nOT7k2npBr/tMHxH3QB/4jmqsps
1g6IxrK33xKWy3rlA7MRQlypmsqEWpbm9/WgGvOdRzVnAPzWGnWJoVN1NjIsbWDG
LTKuVz6xmvRD6FQZrV1SkF9yWukEP9Ouu8zbXMnEMjIohlu42fpcTw1HRuN+cnzG
Kb2KJ+5qB6eG/CUgtPUuVNgOtSO3g9i/gNkdI9W36zvPx0Qdy2Ht7jMQF59jHrzM
On2JRL09MuIGHkXkvzaFmm6wTnx52zuU30snUVabi1VbEKyM+Yb5Ml+gPgPYSugV
1Hw/r9bSom7z8SQe5hGfdDWtmMAEEDZ6fXuPj72tAFDAGSQ=
-----END CERTIFICATE-----
