Certificate:
    Data:
        Version: 3 (0x2)
        Serial Number: 268435658 (0x100000ca)
    Signature Algorithm: sha1WithRSAEncryption
        Issuer: C=DE, ST=Hessen, O=privacyidea, CN=CA001
        Validity
            Not Before: Dec 18 17:14:11 2015 GMT
            Not After : Dec 17 17:14:11 2016 GMT
        Subject: CN=Steve Test/emailAddress=steve@openssl.org
        Subject Public Key Info:
            Public Key Algorithm: rsaEncryption
                Public-Key: (2048 bit)
                Modulus:
                    00:d2:81:89:20:51:48:0f:73:f4:11:32:24:d5:1f:
                    1c:fd:5c:f5:b6:e6:c5:f0:52:81:dc:d2:af:66:4a:
                    7c:93:31:61:5c:af:d1:6d:06:70:03:60:7c:72:0c:
                    88:dd:49:cd:9e:02:6c:d2:5a:d7:53:0f:f3:da:be:
                    69:64:b5:0f:0c:00:e3:b3:50:47:a3:b3:9b:ba:13:
                    50:d6:58:5a:4b:ab:39:e0:11:ca:0a:27:67:03:78:
                    22:66:6d:92:1e:1b:5c:49:ae:e6:6b:d1:8e:3b:9d:
                    06:d3:c6:ac:4d:53:43:10:ab:e8:96:c1:87:82:97:
                    99:8f:20:d3:99:12:37:31:84:e1:8a:ff:29:03:5f:
                    22:90:3e:7f:9b:e0:20:c1:ad:dc:ae:4c:39:1a:31:
                    96:17:02:8c:b2:d9:b4:0d:20:12:9b:7d:86:54:fd:
                    33:fd:c1:2a:62:46:f8:60:96:cf:6e:01:6f:22:df:
                    13:47:e7:97:ec:05:72:23:a3:62:f8:fa:ef:ac:9c:
                    72:f0:37:cb:2f:37:cf:90:a8:27:51:86:c6:d7:78:
                    08:8f:7e:25:a2:15:70:a2:fb:1c:b6:15:5e:a0:97:
                    8b:81:4c:09:28:8a:27:3b:94:bc:71:db:5b:71:37:
                    9a:2b:16:e0:6f:b5:c9:f5:4b:4f:20:ba:65:cf:af:
                    ad:ad
                Exponent: 65537 (0x10001)
        X509v3 extensions:
            X509v3 Key Usage: 
                Digital Signature, Key Encipherment
            X509v3 Basic Constraints: 
                CA:FALSE
            Netscape Cert Type: 
                SSL Server
            Netscape Comment: 
                OpenSSL Generated Server Certificate
            X509v3 Subject Key Identifier: 
                E5:25:6D:3E:AF:0D:DD:3F:4C:F2:45:19:39:D5:14:DB:7E:9C:C0:AD
            X509v3 Authority Key Identifier: 
                keyid:F4:A7:C0:CC:91:46:AF:64:F3:91:F2:27:F8:C8:B2:6F:8A:87:32:73
                DirName:/C=DE/ST=Hessen/O=privacyidea/CN=CA001
                serial:FB:C8:EB:AC:83:CD:12:07

            X509v3 Extended Key Usage: 
                TLS Web Server Authentication
    Signature Algorithm: sha1WithRSAEncryption
         8b:24:e6:f0:6e:52:55:7a:ef:f4:5a:c3:c0:d3:a8:6f:e7:0a:
         1a:95:54:b7:81:5b:45:db:23:bc:15:5c:8d:13:21:91:70:2f:
         89:5b:97:73:9f:72:cd:f4:ce:e4:cf:df:a5:0a:71:0c:ad:2d:
         67:31:69:90:a4:e1:88:98:8e:02:e6:7e:a7:af:ef:b4:89:15:
         4e:e2:68:84:e2:86:a6:2a:9b:9a:4a:ac:00:12:bf:7f:93:f4:
         48:52:c1:cc:03:8b:51:46:e3:bd:9c:7f:84:71:8b:ff:e4:ba:
         2c:ae:c1:ab:cf:2e:86:43:7c:cd:34:5c:43:00:04:ee:5b:b4:
         3d:fb:e0:06:b0:ab:46:77:1a:8a:d3:8d:c6:e0:22:46:e7:68:
         74:b5:35:d6:dc:a9:cc:90:69:84:b3:8c:19:1c:d2:f8:30:68:
         8e:c0:ff:d8:01:37:5e:8f:c3:bf:87:bf:76:9e:c2:69:54:15:
         d9:43:f6:ca:34:6b:b3:29:11:a4:49:e6:29:ca:dd:78:76:3d:
         bd:10:c9:7d:c7:f0:4e:ca:dd:28:dd:c9:33:9e:d9:f6:a9:7b:
         0e:3c:da:d3:6f:50:11:4d:76:33:4a:09:c4:0c:9c:e7:48:ee:
         c0:14:fc:d1:2e:03:e7:db:d8:9d:c6:d2:11:6a:2a:c7:0c:e5:
         42:47:82:4c
-----BEGIN CERTIFICATE-----
MIIECTCCAvGgAwIBAgIEEAAAyjANBgkqhkiG9w0BAQUFADBEMQswCQYDVQQGEwJE
RTEPMA0GA1UECAwGSGVzc2VuMRQwEgYDVQQKDAtwcml2YWN5aWRlYTEOMAwGA1UE
AwwFQ0EwMDEwHhcNMTUxMjE4MTcxNDExWhcNMTYxMjE3MTcxNDExWjA3MRMwEQYD
VQQDEwpTdGV2ZSBUZXN0MSAwHgYJKoZIhvcNAQkBFhFzdGV2ZUBvcGVuc3NsLm9y
ZzCCASIwDQYJKoZIhvcNAQEBBQADggEPADCCAQoCggEBANKBiSBRSA9z9BEyJNUf
HP1c9bbmxfBSgdzSr2ZKfJMxYVyv0W0GcANgfHIMiN1JzZ4CbNJa11MP89q+aWS1
DwwA47NQR6Ozm7oTUNZYWkurOeARygonZwN4ImZtkh4bXEmu5mvRjjudBtPGrE1T
QxCr6JbBh4KXmY8g05kSNzGE4Yr/KQNfIpA+f5vgIMGt3K5MORoxlhcCjLLZtA0g
Ept9hlT9M/3BKmJG+GCWz24BbyLfE0fnl+wFciOjYvj676yccvA3yy83z5CoJ1GG
xtd4CI9+JaIVcKL7HLYVXqCXi4FMCSiKJzuUvHHbW3E3misW4G+1yfVLTyC6Zc+v
ra0CAwEAAaOCAQ4wggEKMAsGA1UdDwQEAwIFoDAJBgNVHRMEAjAAMBEGCWCGSAGG
+EIBAQQEAwIGQDAzBglghkgBhvhCAQ0EJhYkT3BlblNTTCBHZW5lcmF0ZWQgU2Vy
dmVyIENlcnRpZmljYXRlMB0GA1UdDgQWBBTlJW0+rw3dP0zyRRk51RTbfpzArTB0
BgNVHSMEbTBrgBT0p8DMkUavZPOR8if4yLJviocyc6FIpEYwRDELMAkGA1UEBhMC
REUxDzANBgNVBAgMBkhlc3NlbjEUMBIGA1UECgwLcHJpdmFjeWlkZWExDjAMBgNV
BAMMBUNBMDAxggkA+8jrrIPNEgcwEwYDVR0lBAwwCgYIKwYBBQUHAwEwDQYJKoZI
hvcNAQEFBQADggEBAIsk5vBuUlV67/Raw8DTqG/nChqVVLeBW0XbI7wVXI0TIZFw
L4lbl3Ofcs30zuTP36UKcQytLWcxaZCk4YiYjgLmfqev77SJFU7iaITihqYqm5pK
rAASv3+T9EhSwcwDi1FG472cf4Rxi//kuiyuwavPLoZDfM00XEMABO5btD374Aaw
q0Z3GorTjcbgIkbnaHS1NdbcqcyQaYSzjBkc0vgwaI7A/9gBN16Pw7+Hv3aewmlU
FdlD9so0a7MpEaRJ5inK3Xh2Pb0QyX3H8E7K3SjdyTOe2fapew482tNvUBFNdjNK
CcQMnOdI7sAU/NEuA+fb2J3G0hFqKscM5UJHgkw=
-----END CERTIFICATE-----
