Certificate:
    Data:
        Version: 3 (0x2)
        Serial Number: 268435649 (0x100000c1)
    Signature Algorithm: sha1WithRSAEncryption
        Issuer: C=DE, ST=Hessen, O=privacyidea, CN=CA001
        Validity
            Not Before: Dec 21 16:30:20 2015 GMT
            Not After : Dec 20 16:30:20 2016 GMT
        Subject: C=DE, ST=Hessen, O=privacyidea, CN=requester.localdomain
        Subject Public Key Info:
            Public Key Algorithm: rsaEncryption
                Public-Key: (2048 bit)
                Modulus:
                    00:cd:be:14:4f:fa:ce:01:3f:42:22:1b:1d:9c:af:
                    dd:92:d2:7f:db:6c:b7:3e:39:43:43:6b:13:03:f1:
                    05:f4:07:74:bc:76:69:28:0b:af:19:8e:d7:fc:e3:
                    cd:c6:58:f2:ca:7f:08:6d:53:fc:07:02:44:24:c6:
                    b4:34:4c:8c:04:fe:33:0e:40:e2:20:ba:02:73:5a:
                    f7:f5:4f:63:6e:cc:c6:b6:df:54:1d:37:39:7d:51:
                    36:26:5f:bd:dc:3f:a8:8b:6b:a2:ae:b6:9d:d6:21:
                    e7:df:41:b8:7a:28:2a:68:48:ca:a8:2d:ed:e1:e9:
                    46:5e:5a:72:6d:b4:84:38:87:91:fd:94:11:0b:28:
                    84:c6:c2:2f:2a:fb:01:f9:36:7a:09:75:d1:33:88:
                    3c:73:41:5b:c8:bf:94:89:70:a1:f0:c0:b9:2e:50:
                    53:1e:b1:17:64:69:f4:2d:81:e0:a9:0d:0e:32:e9:
                    ba:55:8a:85:f1:1b:6f:49:79:b4:7f:88:c3:0d:3e:
                    54:88:9b:3d:1f:38:8c:04:f3:ee:6a:63:2b:f5:c6:
                    db:b4:83:aa:c4:78:41:3a:7d:4b:e1:c8:3e:71:ca:
                    1b:61:59:ea:c6:c4:ca:32:5e:c9:e9:bf:12:29:e6:
                    c6:c3:63:fe:a0:55:da:7a:f1:60:98:4d:26:ed:fa:
                    70:2d
                Exponent: 65537 (0x10001)
        X509v3 extensions:
            X509v3 Key Usage: 
                Digital Signature, Key Encipherment
            X509v3 Basic Constraints: 
                CA:FALSE
            Netscape Cert Type: 
                SSL Server
            Netscape Comment: 
                OpenSSL Generated Server Certificate
            X509v3 Subject Key Identifier: 
                53:3F:ED:5D:09:07:B3:65:7B:AB:45:C9:24:5B:09:77:80:0A:96:ED
            X509v3 Authority Key Identifier: 
                keyid:F4:A7:C0:CC:91:46:AF:64:F3:91:F2:27:F8:C8:B2:6F:8A:87:32:73
                DirName:/C=DE/ST=Hessen/O=privacyidea/CN=CA001
                serial:FB:C8:EB:AC:83:CD:12:07

            X509v3 Extended Key Usage: 
                TLS Web Server Authentication
    Signature Algorithm: sha1WithRSAEncryption
         92:f4:8e:21:4e:32:9c:b6:f6:67:63:5a:6a:a9:d6:6f:31:6c:
         ed:60:75:c9:ee:ba:b6:db:30:ef:a7:66:c4:c4:e1:8b:52:7a:
         bc:e8:da:ac:b7:51:15:2e:85:75:13:fb:2c:de:fb:a0:3e:bc:
         f4:36:79:58:15:98:5d:89:fa:11:24:14:d9:1f:ed:af:48:5f:
         0f:a5:1b:50:fc:7e:ef:db:e3:3e:12:4a:4f:c5:43:22:0a:da:
         3c:0a:4d:f9:97:9e:59:28:e1:76:43:ce:4a:e9:2b:93:0e:39:
         fc:f4:91:23:36:cc:ef:4a:24:d9:2e:dc:ca:e1:be:bf:f6:45:
         5f:5b:91:74:1d:97:95:de:f0:16:28:95:3d:b3:72:ac:71:19:
         c7:22:8b:32:63:fc:8f:4f:b3:54:3e:6e:7f:d7:75:20:a3:a6:
         ae:da:37:ab:e5:b8:92:91:7f:d0:0a:64:f1:81:39:18:32:f0:
         bb:22:5b:fe:ef:30:62:dd:c5:a2:3b:6d:da:23:40:95:3b:cc:
         2a:dd:3d:d2:09:88:68:a0:b6:a3:13:46:aa:06:17:90:7f:d8:
         5a:8c:1b:66:12:6f:a9:c1:35:5d:d6:92:a9:92:ff:9e:4f:df:
         80:c0:36:e7:24:cf:ee:2b:e4:81:07:9e:0e:56:60:28:9f:0d:
         41:f7:70:88
-----BEGIN CERTIFICATE-----
MIIEJjCCAw6gAwIBAgIEEAAAwTANBgkqhkiG9w0BAQUFADBEMQswCQYDVQQGEwJE
RTEPMA0GA1UECAwGSGVzc2VuMRQwEgYDVQQKDAtwcml2YWN5aWRlYTEOMAwGA1UE
AwwFQ0EwMDEwHhcNMTUxMjIxMTYzMDIwWhcNMTYxMjIwMTYzMDIwWjBUMQswCQYD
VQQGEwJERTEPMA0GA1UECAwGSGVzc2VuMRQwEgYDVQQKDAtwcml2YWN5aWRlYTEe
MBwGA1UEAwwVcmVxdWVzdGVyLmxvY2FsZG9tYWluMIIBIjANBgkqhkiG9w0BAQEF
AAOCAQ8AMIIBCgKCAQEAzb4UT/rOAT9CIhsdnK/dktJ/22y3PjlDQ2sTA/EF9Ad0
vHZpKAuvGY7X/OPNxljyyn8IbVP8BwJEJMa0NEyMBP4zDkDiILoCc1r39U9jbszG
tt9UHTc5fVE2Jl+93D+oi2uirrad1iHn30G4eigqaEjKqC3t4elGXlpybbSEOIeR
/ZQRCyiExsIvKvsB+TZ6CXXRM4g8c0FbyL+UiXCh8MC5LlBTHrEXZGn0LYHgqQ0O
Mum6VYqF8RtvSXm0f4jDDT5UiJs9HziMBPPuamMr9cbbtIOqxHhBOn1L4cg+ccob
YVnqxsTKMl7J6b8SKebGw2P+oFXaevFgmE0m7fpwLQIDAQABo4IBDjCCAQowCwYD
VR0PBAQDAgWgMAkGA1UdEwQCMAAwEQYJYIZIAYb4QgEBBAQDAgZAMDMGCWCGSAGG
+EIBDQQmFiRPcGVuU1NMIEdlbmVyYXRlZCBTZXJ2ZXIgQ2VydGlmaWNhdGUwHQYD
VR0OBBYEFFM/7V0JB7Nle6tFySRbCXeACpbtMHQGA1UdIwRtMGuAFPSnwMyRRq9k
85HyJ/jIsm+KhzJzoUikRjBEMQswCQYDVQQGEwJERTEPMA0GA1UECAwGSGVzc2Vu
MRQwEgYDVQQKDAtwcml2YWN5aWRlYTEOMAwGA1UEAwwFQ0EwMDGCCQD7yOusg80S
BzATBgNVHSUEDDAKBggrBgEFBQcDATANBgkqhkiG9w0BAQUFAAOCAQEAkvSOIU4y
nLb2Z2NaaqnWbzFs7WB1ye66ttsw76dmxMThi1J6vOjarLdRFS6FdRP7LN77oD68
9DZ5WBWYXYn6ESQU2R/tr0hfD6UbUPx+79vjPhJKT8VDIgraPApN+ZeeWSjhdkPO
Sukrkw45/PSRIzbM70ok2S7cyuG+v/ZFX1uRdB2Xld7wFiiVPbNyrHEZxyKLMmP8
j0+zVD5uf9d1IKOmrto3q+W4kpF/0Apk8YE5GDLwuyJb/u8wYt3Fojtt2iNAlTvM
Kt090gmIaKC2oxNGqgYXkH/YWowbZhJvqcE1XdaSqZL/nk/fgMA25yTP7ivkgQee
DlZgKJ8NQfdwiA==
-----END CERTIFICATE-----
