Certificate:
    Data:
        Version: 3 (0x2)
        Serial Number: 268435650 (0x100000c2)
    Signature Algorithm: sha1WithRSAEncryption
        Issuer: C=DE, ST=Hessen, O=privacyidea, CN=CA001
        Validity
            Not Before: Dec 21 16:31:45 2015 GMT
            Not After : Dec 20 16:31:45 2016 GMT
        Subject: C=DE, ST=Hessen, O=privacyidea, CN=requester.localdomain
        Subject Public Key Info:
            Public Key Algorithm: rsaEncryption
                Public-Key: (2048 bit)
                Modulus:
                    00:cd:be:14:4f:fa:ce:01:3f:42:22:1b:1d:9c:af:
                    dd:92:d2:7f:db:6c:b7:3e:39:43:43:6b:13:03:f1:
                    05:f4:07:74:bc:76:69:28:0b:af:19:8e:d7:fc:e3:
                    cd:c6:58:f2:ca:7f:08:6d:53:fc:07:02:44:24:c6:
                    b4:34:4c:8c:04:fe:33:0e:40:e2:20:ba:02:73:5a:
                    f7:f5:4f:63:6e:cc:c6:b6:df:54:1d:37:39:7d:51:
                    36:26:5f:bd:dc:3f:a8:8b:6b:a2:ae:b6:9d:d6:21:
                    e7:df:41:b8:7a:28:2a:68:48:ca:a8:2d:ed:e1:e9:
                    46:5e:5a:72:6d:b4:84:38:87:91:fd:94:11:0b:28:
                    84:c6:c2:2f:2a:fb:01:f9:36:7a:09:75:d1:33:88:
                    3c:73:41:5b:c8:bf:94:89:70:a1:f0:c0:b9:2e:50:
                    53:1e:b1:17:64:69:f4:2d:81:e0:a9:0d:0e:32:e9:
                    ba:55:8a:85:f1:1b:6f:49:79:b4:7f:88:c3:0d:3e:
                    54:88:9b:3d:1f:38:8c:04:f3:ee:6a:63:2b:f5:c6:
                    db:b4:83:aa:c4:78:41:3a:7d:4b:e1:c8:3e:71:ca:
                    1b:61:59:ea:c6:c4:ca:32:5e:c9:e9:bf:12:29:e6:
                    c6:c3:63:fe:a0:55:da:7a:f1:60:98:4d:26:ed:fa:
                    70:2d
                Exponent: 65537 (0x10001)
        X509v3 extensions:
            X509v3 Key Usage: 
                Digital Signature, Key Encipherment
            X509v3 Basic Constraints: 
                CA:FALSE
            Netscape Cert Type: 
                SSL Server
            Netscape Comment: 
                OpenSSL Generated Server Certificate
            X509v3 Subject Key Identifier: 
                53:3F:ED:5D:09:07:B3:65:7B:AB:45:C9:24:5B:09:77:80:0A:96:ED
            X509v3 Authority Key Identifier: 
                keyid:F4:A7:C0:CC:91:46:AF:64:F3:91:F2:27:F8:C8:B2:6F:8A:87:32:73
                DirName:/C=DE/ST=Hessen/O=privacyidea/CN=CA001
                serial:FB:C8:EB:AC:83:CD:12:07

            X509v3 Extended Key Usage: 
                TLS Web Server Authentication
    Signature Algorithm: sha1WithRSAEncryption
         4d:7b:79:dd:6d:14:a7:fc:18:52:b8:ae:19:a8:ed:0e:0b:86:
         38:7b:b8:ac:ba:9b:8a:88:37:18:8e:51:0e:11:ec:a3:f6:c9:
         da:0c:11:d5:96:fa:a3:fb:f9:ba:b5:d5:7d:87:fc:35:0d:14:
         4d:60:e1:16:fb:f3:ad:e3:64:0a:47:d7:b7:f8:9e:d4:40:d7:
         92:b0:a0:0c:a2:22:26:a7:56:1e:fa:f0:ab:e2:1c:3b:c9:b3:
         7a:a2:62:fa:7f:8d:8f:bf:78:84:25:17:54:6f:20:41:75:15:
         03:d5:38:fa:cf:5c:dd:05:30:e9:a4:a9:98:fd:6a:c7:8f:be:
         9f:8c:0e:84:e0:56:89:f6:46:32:c7:80:ce:4c:04:e2:f2:46:
         1e:40:08:db:43:6d:ea:17:4a:ee:f5:a2:54:c8:e6:02:77:f5:
         f7:c3:10:1a:c7:5a:72:2b:f4:a9:98:c4:1e:81:d8:44:d7:89:
         0f:c8:55:7f:f5:b4:5e:f3:cb:ac:c8:2c:a4:ed:75:ec:9c:32:
         6e:c4:80:2a:9b:e2:00:3d:c2:91:a1:a3:52:90:0b:86:46:3a:
         31:61:32:81:f4:f2:fe:79:28:a7:ea:81:19:d1:2e:cf:b7:70:
         fd:76:cf:e4:40:67:1b:22:7e:96:26:bb:6f:16:17:4e:ab:bd:
         d6:65:c2:26
-----BEGIN CERTIFICATE-----
MIIEJjCCAw6gAwIBAgIEEAAAwjANBgkqhkiG9w0BAQUFADBEMQswCQYDVQQGEwJE
RTEPMA0GA1UECAwGSGVzc2VuMRQwEgYDVQQKDAtwcml2YWN5aWRlYTEOMAwGA1UE
AwwFQ0EwMDEwHhcNMTUxMjIxMTYzMTQ1WhcNMTYxMjIwMTYzMTQ1WjBUMQswCQYD
VQQGEwJERTEPMA0GA1UECAwGSGVzc2VuMRQwEgYDVQQKDAtwcml2YWN5aWRlYTEe
MBwGA1UEAwwVcmVxdWVzdGVyLmxvY2FsZG9tYWluMIIBIjANBgkqhkiG9w0BAQEF
AAOCAQ8AMIIBCgKCAQEAzb4UT/rOAT9CIhsdnK/dktJ/22y3PjlDQ2sTA/EF9Ad0
vHZpKAuvGY7X/OPNxljyyn8IbVP8BwJEJMa0NEyMBP4zDkDiILoCc1r39U9jbszG
tt9UHTc5fVE2Jl+93D+oi2uirrad1iHn30G4eigqaEjKqC3t4elGXlpybbSEOIeR
/ZQRCyiExsIvKvsB+TZ6CXXRM4g8c0FbyL+UiXCh8MC5LlBTHrEXZGn0LYHgqQ0O
Mum6VYqF8RtvSXm0f4jDDT5UiJs9HziMBPPuamMr9cbbtIOqxHhBOn1L4cg+ccob
YVnqxsTKMl7J6b8SKebGw2P+oFXaevFgmE0m7fpwLQIDAQABo4IBDjCCAQowCwYD
VR0PBAQDAgWgMAkGA1UdEwQCMAAwEQYJYIZIAYb4QgEBBAQDAgZAMDMGCWCGSAGG
+EIBDQQmFiRPcGVuU1NMIEdlbmVyYXRlZCBTZXJ2ZXIgQ2VydGlmaWNhdGUwHQYD
VR0OBBYEFFM/7V0JB7Nle6tFySRbCXeACpbtMHQGA1UdIwRtMGuAFPSnwMyRRq9k
85HyJ/jIsm+KhzJzoUikRjBEMQswCQYDVQQGEwJERTEPMA0GA1UECAwGSGVzc2Vu
MRQwEgYDVQQKDAtwcml2YWN5aWRlYTEOMAwGA1UEAwwFQ0EwMDGCCQD7yOusg80S
BzATBgNVHSUEDDAKBggrBgEFBQcDATANBgkqhkiG9w0BAQUFAAOCAQEATXt53W0U
p/wYUriuGajtDguGOHu4rLqbiog3GI5RDhHso/bJ2gwR1Zb6o/v5urXVfYf8NQ0U
TWDhFvvzreNkCkfXt/ie1EDXkrCgDKIiJqdWHvrwq+IcO8mzeqJi+n+Nj794hCUX
VG8gQXUVA9U4+s9c3QUw6aSpmP1qx4++n4wOhOBWifZGMseAzkwE4vJGHkAI20Nt
6hdK7vWiVMjmAnf198MQGsdaciv0qZjEHoHYRNeJD8hVf/W0XvPLrMgspO117Jwy
bsSAKpviAD3CkaGjUpALhkY6MWEygfTy/nkop+qBGdEuz7dw/XbP5EBnGyJ+lia7
bxYXTqu91mXCJg==
-----END CERTIFICATE-----
