Certificate:
    Data:
        Version: 3 (0x2)
        Serial Number: 268435652 (0x100000c4)
    Signature Algorithm: sha1WithRSAEncryption
        Issuer: C=DE, ST=Hessen, O=privacyidea, CN=CA001
        Validity
            Not Before: Dec 21 16:31:45 2015 GMT
            Not After : Dec 20 16:31:45 2016 GMT
        Subject: CN=Steve Test/emailAddress=steve@openssl.org
        Subject Public Key Info:
            Public Key Algorithm: rsaEncryption
                Public-Key: (2048 bit)
                Modulus:
                    00:d2:81:89:20:51:48:0f:73:f4:11:32:24:d5:1f:
                    1c:fd:5c:f5:b6:e6:c5:f0:52:81:dc:d2:af:66:4a:
                    7c:93:31:61:5c:af:d1:6d:06:70:03:60:7c:72:0c:
                    88:dd:49:cd:9e:02:6c:d2:5a:d7:53:0f:f3:da:be:
                    69:64:b5:0f:0c:00:e3:b3:50:47:a3:b3:9b:ba:13:
                    50:d6:58:5a:4b:ab:39:e0:11:ca:0a:27:67:03:78:
                    22:66:6d:92:1e:1b:5c:49:ae:e6:6b:d1:8e:3b:9d:
                    06:d3:c6:ac:4d:53:43:10:ab:e8:96:c1:87:82:97:
                    99:8f:20:d3:99:12:37:31:84:e1:8a:ff:29:03:5f:
                    22:90:3e:7f:9b:e0:20:c1:ad:dc:ae:4c:39:1a:31:
                    96:17:02:8c:b2:d9:b4:0d:20:12:9b:7d:86:54:fd:
                    33:fd:c1:2a:62:46:f8:60:96:cf:6e:01:6f:22:df:
                    13:47:e7:97:ec:05:72:23:a3:62:f8:fa:ef:ac:9c:
                    72:f0:37:cb:2f:37:cf:90:a8:27:51:86:c6:d7:78:
                    08:8f:7e:25:a2:15:70:a2:fb:1c:b6:15:5e:a0:97:
                    8b:81:4c:09:28:8a:27:3b:94:bc:71:db:5b:71:37:
                    9a:2b:16:e0:6f:b5:c9:f5:4b:4f:20:ba:65:cf:af:
                    ad:ad
                Exponent: 65537 (0x10001)
        X509v3 extensions:
            X509v3 Key Usage: 
                Digital Signature, Key Encipherment
            X509v3 Basic Constraints: 
                CA:FALSE
            Netscape Cert Type: 
                SSL Server
            Netscape Comment: 
                OpenSSL Generated Server Certificate
            X509v3 Subject Key Identifier: 
                E5:25:6D:3E:AF:0D:DD:3F:4C:F2:45:19:39:D5:14:DB:7E:9C:C0:AD
            X509v3 Authority Key Identifier: 
                keyid:F4:A7:C0:CC:91:46:AF:64:F3:91:F2:27:F8:C8:B2:6F:8A:87:32:73
                DirName:/C=DE/ST=Hessen/O=privacyidea/CN=CA001
                serial:FB:C8:EB:AC:83:CD:12:07

            X509v3 Extended Key Usage: 
                TLS Web Server Authentication
    Signature Algorithm: sha1WithRSAEncryption
         08:b0:12:d5:78:13:43:42:f3:c4:da:80:47:d7:65:b3:bd:5c:
         ea:4e:0b:c1:bd:04:a6:95:e2:4e:24:28:2c:84:67:f1:4d:fc:
         64:72:2e:ff:80:3e:02:a0:80:70:cf:4e:4b:b2:34:41:86:a1:
         45:f0:2e:40:36:05:8e:f8:81:91:bb:90:f0:58:84:1d:95:3d:
         6f:bd:da:2d:2c:57:36:44:61:f9:c3:2c:1a:4d:21:76:54:e5:
         c9:b0:c9:bc:79:ce:5e:b0:c7:49:d1:aa:94:fc:bd:e6:6e:0a:
         f1:1e:b6:60:32:e4:ad:67:80:77:59:cc:86:46:c5:38:8a:22:
         a8:15:7b:ec:21:0a:71:20:51:ab:d6:f3:23:11:77:37:33:1b:
         fb:9a:2f:cd:39:81:72:6a:d5:be:27:4a:c3:72:09:19:32:ad:
         ce:0a:89:88:ef:99:a8:76:07:a8:66:8b:6d:54:bb:44:e2:05:
         9d:ee:27:30:2e:d9:45:bd:10:59:cf:03:f9:f9:d5:52:d4:c1:
         fe:00:ba:44:a8:8f:4a:c9:73:83:0a:6e:ab:25:88:cf:45:6c:
         66:e3:2c:e4:18:3a:8b:3a:d0:0f:9f:ff:e5:cb:a5:30:6c:d6:
         ef:a7:fb:47:4a:f1:42:a8:18:ba:d9:79:82:cc:e7:c5:98:13:
         5e:0b:f7:c9
-----BEGIN CERTIFICATE-----
MIIECTCCAvGgAwIBAgIEEAAAxDANBgkqhkiG9w0BAQUFADBEMQswCQYDVQQGEwJE
RTEPMA0GA1UECAwGSGVzc2VuMRQwEgYDVQQKDAtwcml2YWN5aWRlYTEOMAwGA1UE
AwwFQ0EwMDEwHhcNMTUxMjIxMTYzMTQ1WhcNMTYxMjIwMTYzMTQ1WjA3MRMwEQYD
VQQDEwpTdGV2ZSBUZXN0MSAwHgYJKoZIhvcNAQkBFhFzdGV2ZUBvcGVuc3NsLm9y
ZzCCASIwDQYJKoZIhvcNAQEBBQADggEPADCCAQoCggEBANKBiSBRSA9z9BEyJNUf
HP1c9bbmxfBSgdzSr2ZKfJMxYVyv0W0GcANgfHIMiN1JzZ4CbNJa11MP89q+aWS1
DwwA47NQR6Ozm7oTUNZYWkurOeARygonZwN4ImZtkh4bXEmu5mvRjjudBtPGrE1T
QxCr6JbBh4KXmY8g05kSNzGE4Yr/KQNfIpA+f5vgIMGt3K5MORoxlhcCjLLZtA0g
Ept9hlT9M/3BKmJG+GCWz24BbyLfE0fnl+wFciOjYvj676yccvA3yy83z5CoJ1GG
xtd4CI9+JaIVcKL7HLYVXqCXi4FMCSiKJzuUvHHbW3E3misW4G+1yfVLTyC6Zc+v
ra0CAwEAAaOCAQ4wggEKMAsGA1UdDwQEAwIFoDAJBgNVHRMEAjAAMBEGCWCGSAGG
+EIBAQQEAwIGQDAzBglghkgBhvhCAQ0EJhYkT3BlblNTTCBHZW5lcmF0ZWQgU2Vy
dmVyIENlcnRpZmljYXRlMB0GA1UdDgQWBBTlJW0+rw3dP0zyRRk51RTbfpzArTB0
BgNVHSMEbTBrgBT0p8DMkUavZPOR8if4yLJviocyc6FIpEYwRDELMAkGA1UEBhMC
REUxDzANBgNVBAgMBkhlc3NlbjEUMBIGA1UECgwLcHJpdmFjeWlkZWExDjAMBgNV
BAMMBUNBMDAxggkA+8jrrIPNEgcwEwYDVR0lBAwwCgYIKwYBBQUHAwEwDQYJKoZI
hvcNAQEFBQADggEBAAiwEtV4E0NC88TagEfXZbO9XOpOC8G9BKaV4k4kKCyEZ/FN
/GRyLv+APgKggHDPTkuyNEGGoUXwLkA2BY74gZG7kPBYhB2VPW+92i0sVzZEYfnD
LBpNIXZU5cmwybx5zl6wx0nRqpT8veZuCvEetmAy5K1ngHdZzIZGxTiKIqgVe+wh
CnEgUavW8yMRdzczG/uaL805gXJq1b4nSsNyCRkyrc4KiYjvmah2B6hmi21Uu0Ti
BZ3uJzAu2UW9EFnPA/n51VLUwf4AukSoj0rJc4MKbqsliM9FbGbjLOQYOos60A+f
/+XLpTBs1u+n+0dK8UKoGLrZeYLM58WYE14L98k=
-----END CERTIFICATE-----
