Certificate:
    Data:
        Version: 3 (0x2)
        Serial Number: 268435654 (0x100000c6)
    Signature Algorithm: sha1WithRSAEncryption
        Issuer: C=DE, ST=Hessen, O=privacyidea, CN=CA001
        Validity
            Not Before: Dec 21 16:41:29 2015 GMT
            Not After : Dec 20 16:41:29 2016 GMT
        Subject: CN=selfservice,CN=user,O=realm1/emailAddress=meine
        Subject Public Key Info:
            Public Key Algorithm: rsaEncryption
                Public-Key: (2048 bit)
                Modulus:
                    00:cf:3c:d4:33:0e:12:c4:e6:da:cd:b6:56:a1:1c:
                    26:bb:26:1c:8a:4a:73:a8:58:8a:b6:1e:b3:8b:99:
                    d2:1d:07:c2:92:89:79:c0:69:d8:c8:df:28:61:98:
                    1e:b3:fe:ae:2b:bd:78:a9:f7:6e:47:dc:a3:a0:16:
                    8c:85:02:c1:4e:92:fd:72:6e:f0:c8:03:29:9b:b8:
                    00:6e:c0:83:95:c8:34:20:36:9c:b3:e5:e4:e6:76:
                    73:a3:1a:ad:40:96:e0:53:54:00:ec:76:79:9a:c6:
                    0d:7e:b6:bd:29:ec:83:f3:cb:89:a4:cb:6c:00:ba:
                    0c:c5:78:0f:ff:69:b8:94:f4:04:70:43:3f:d8:9e:
                    d7:a7:fb:5d:ce:75:8e:da:e7:c4:07:b1:9d:de:6f:
                    88:4b:b6:4d:9a:cf:f9:bc:fa:9f:cd:32:6d:f6:3a:
                    0b:0d:23:42:78:ec:97:42:bf:0e:4d:60:56:e1:d3:
                    02:f2:19:cb:84:57:90:e5:70:a1:a2:83:35:86:e2:
                    da:86:9f:f9:8a:c4:79:b3:52:28:da:cb:bb:34:ca:
                    d3:da:91:4a:cf:8d:76:a2:b2:6b:9b:f9:96:fd:09:
                    2a:da:11:23:4d:f0:cb:d6:b2:b1:0e:12:6c:9a:19:
                    65:98:87:ca:e4:ee:24:ce:44:ac:90:8f:9d:1b:c5:
                    2a:9d
                Exponent: 65537 (0x10001)
        X509v3 extensions:
            X509v3 Key Usage: 
                Digital Signature, Key Encipherment
            X509v3 Basic Constraints: 
                CA:FALSE
            Netscape Cert Type: 
                SSL Server
            Netscape Comment: 
                OpenSSL Generated Server Certificate
            X509v3 Subject Key Identifier: 
                4D:07:90:AD:FF:1D:0D:E7:1A:DD:D6:2E:FA:BA:34:CB:AA:1F:24:C6
            X509v3 Authority Key Identifier: 
                keyid:F4:A7:C0:CC:91:46:AF:64:F3:91:F2:27:F8:C8:B2:6F:8A:87:32:73
                DirName:/C=DE/ST=Hessen/O=privacyidea/CN=CA001
                serial:FB:C8:EB:AC:83:CD:12:07

            X509v3 Extended Key Usage: 
                TLS Web Server Authentication
    Signature Algorithm: sha1WithRSAEncryption
         27:f7:cd:50:df:ba:22:02:28:24:b9:a8:ba:ae:a9:77:72:a7:
         bd:5f:e8:cc:dc:46:00:40:3c:16:bc:00:06:d5:d2:0c:95:4d:
         e9:7d:d8:31:83:d5:f8:bd:f1:ea:1d:b8:1b:ab:73:02:34:0e:
         1c:eb:2c:d4:20:d4:c8:8e:20:66:3a:a1:97:94:f8:19:8f:32:
         be:c6:b4:16:4d:26:6e:b8:bf:28:53:63:0f:ee:8e:35:53:3c:
         a3:07:23:26:ea:e3:27:23:f5:bb:6f:a6:a0:f6:11:fe:cc:c1:
         73:17:ca:90:b1:07:c3:69:fe:c5:da:0c:68:06:ee:25:0b:81:
         21:22:30:bb:83:b1:d2:48:6c:d2:55:ee:35:26:3e:16:d3:39:
         b1:c5:37:bb:fa:4f:87:bd:b0:ce:c0:89:85:6f:94:0b:08:82:
         8f:e7:12:82:02:52:26:d9:9b:b2:79:f0:66:26:85:21:97:22:
         28:bb:ee:1a:4c:95:21:a3:a5:e8:aa:ae:bc:06:e8:43:76:33:
         64:51:9d:23:a3:1b:7d:0a:84:a9:65:aa:fb:d4:2a:10:04:35:
         ec:24:b8:90:db:ae:d3:7b:9c:6f:76:d3:9c:d3:3b:74:d8:a3:
         6a:2e:73:b1:5d:26:4d:eb:98:c6:cc:f2:5a:34:45:9c:e4:22:
         31:97:76:4e
-----BEGIN CERTIFICATE-----
MIIEDzCCAvegAwIBAgIEEAAAxjANBgkqhkiG9w0BAQUFADBEMQswCQYDVQQGEwJE
RTEPMA0GA1UECAwGSGVzc2VuMRQwEgYDVQQKDAtwcml2YWN5aWRlYTEOMAwGA1UE
AwwFQ0EwMDEwHhcNMTUxMjIxMTY0MTI5WhcNMTYxMjIwMTY0MTI5WjA9MSUwIwYD
VQQDExxzZWxmc2VydmljZSxDTj11c2VyLE89cmVhbG0xMRQwEgYJKoZIhvcNAQkB
FgVtZWluZTCCASIwDQYJKoZIhvcNAQEBBQADggEPADCCAQoCggEBAM881DMOEsTm
2s22VqEcJrsmHIpKc6hYirYes4uZ0h0HwpKJecBp2MjfKGGYHrP+riu9eKn3bkfc
o6AWjIUCwU6S/XJu8MgDKZu4AG7Ag5XINCA2nLPl5OZ2c6MarUCW4FNUAOx2eZrG
DX62vSnsg/PLiaTLbAC6DMV4D/9puJT0BHBDP9ie16f7Xc51jtrnxAexnd5viEu2
TZrP+bz6n80ybfY6Cw0jQnjsl0K/Dk1gVuHTAvIZy4RXkOVwoaKDNYbi2oaf+YrE
ebNSKNrLuzTK09qRSs+NdqKya5v5lv0JKtoRI03wy9aysQ4SbJoZZZiHyuTuJM5E
rJCPnRvFKp0CAwEAAaOCAQ4wggEKMAsGA1UdDwQEAwIFoDAJBgNVHRMEAjAAMBEG
CWCGSAGG+EIBAQQEAwIGQDAzBglghkgBhvhCAQ0EJhYkT3BlblNTTCBHZW5lcmF0
ZWQgU2VydmVyIENlcnRpZmljYXRlMB0GA1UdDgQWBBRNB5Ct/x0N5xrd1i76ujTL
qh8kxjB0BgNVHSMEbTBrgBT0p8DMkUavZPOR8if4yLJviocyc6FIpEYwRDELMAkG
A1UEBhMCREUxDzANBgNVBAgMBkhlc3NlbjEUMBIGA1UECgwLcHJpdmFjeWlkZWEx
DjAMBgNVBAMMBUNBMDAxggkA+8jrrIPNEgcwEwYDVR0lBAwwCgYIKwYBBQUHAwEw
DQYJKoZIhvcNAQEFBQADggEBACf3zVDfuiICKCS5qLquqXdyp71f6MzcRgBAPBa8
AAbV0gyVTel92DGD1fi98eoduBurcwI0DhzrLNQg1MiOIGY6oZeU+BmPMr7GtBZN
Jm64vyhTYw/ujjVTPKMHIybq4ycj9btvpqD2Ef7MwXMXypCxB8Np/sXaDGgG7iUL
gSEiMLuDsdJIbNJV7jUmPhbTObHFN7v6T4e9sM7AiYVvlAsIgo/nEoICUibZm7J5
8GYmhSGXIii77hpMlSGjpeiqrrwG6EN2M2RRnSOjG30KhKllqvvUKhAENewkuJDb
rtN7nG9205zTO3TYo2ouc7FdJk3rmMbM8lo0RZzkIjGXdk4=
-----END CERTIFICATE-----
