Certificate:
    Data:
        Version: 3 (0x2)
        Serial Number: 268435651 (0x100000c3)
    Signature Algorithm: sha1WithRSAEncryption
        Issuer: C=DE, ST=Hessen, O=privacyidea, CN=CA001
        Validity
            Not Before: Dec 21 16:31:45 2015 GMT
            Not After : Dec 20 16:31:45 2016 GMT
        Subject: C=DE, ST=Hessen, O=privacyidea, CN=usercert
        Subject Public Key Info:
            Public Key Algorithm: rsaEncryption
                Public-Key: (2048 bit)
                Modulus:
                    00:dc:2f:d1:5f:29:97:d4:7c:c3:53:c8:30:bd:4b:
                    67:70:2c:24:6b:b8:5e:eb:21:7a:48:12:56:7c:81:
                    5c:48:75:b6:68:eb:f6:f2:98:4e:50:51:d1:7f:6c:
                    73:f3:0a:a7:ae:be:48:5e:e5:d6:e1:d9:2a:7c:32:
                    6e:4e:fd:08:f6:5a:54:49:23:73:c3:b9:07:18:d1:
                    ef:b3:ac:f8:8a:dc:94:96:a4:90:3a:8e:74:df:e6:
                    0d:37:1b:bd:5b:b7:25:1a:56:39:da:6f:91:aa:5e:
                    1c:74:f3:f9:7c:14:01:83:12:65:76:c7:bb:fe:36:
                    5b:95:e9:72:65:83:ed:3e:98:30:71:fa:87:dd:a3:
                    36:5a:30:03:2e:26:e0:61:d1:bf:02:3f:b6:06:1f:
                    4a:89:28:1c:5c:a2:ff:4e:be:94:e6:8c:e0:da:82:
                    f1:9d:29:32:48:30:73:b4:04:f6:42:1e:be:f7:e2:
                    32:32:27:3c:9d:89:2f:70:3e:85:9a:6f:5c:c5:09:
                    c0:8c:32:2f:72:22:c9:d2:95:1f:b6:ac:72:60:72:
                    b7:82:4d:6b:ce:5b:e3:00:d0:d2:2f:58:c6:e0:10:
                    e5:51:ca:4d:3b:2e:e6:7e:ab:84:d6:56:f1:93:35:
                    a0:93:64:26:81:75:2f:91:b5:16:06:38:0b:db:cc:
                    2d:07
                Exponent: 65537 (0x10001)
        X509v3 extensions:
            X509v3 Key Usage: 
                Digital Signature, Key Encipherment
            X509v3 Basic Constraints: 
                CA:FALSE
            Netscape Cert Type: 
                SSL Server
            Netscape Comment: 
                OpenSSL Generated Server Certificate
            X509v3 Subject Key Identifier: 
                FC:14:D1:F0:4B:8D:00:90:F2:F5:B8:71:9E:4E:97:C3:92:54:AD:0B
            X509v3 Authority Key Identifier: 
                keyid:F4:A7:C0:CC:91:46:AF:64:F3:91:F2:27:F8:C8:B2:6F:8A:87:32:73
                DirName:/C=DE/ST=Hessen/O=privacyidea/CN=CA001
                serial:FB:C8:EB:AC:83:CD:12:07

            X509v3 Extended Key Usage: 
                TLS Web Server Authentication
    Signature Algorithm: sha1WithRSAEncryption
         1c:e2:7e:32:cc:d3:3c:42:15:f3:51:9a:18:4c:5a:96:f7:6f:
         e7:82:cb:19:88:14:0d:e0:1b:20:28:2c:e8:4b:95:4e:5d:3b:
         16:a9:a7:b3:92:c0:29:86:39:10:b5:7e:cf:fc:be:35:6f:72:
         27:f0:70:6c:e3:ef:e9:fa:6f:02:64:24:ef:98:d5:01:1a:5e:
         ce:c7:65:71:79:eb:d9:0e:e0:03:20:49:f4:e8:7a:82:7f:c4:
         a6:cc:a7:93:a4:ac:a4:74:55:79:02:b3:d0:b4:9d:f7:9e:79:
         ac:2c:35:98:24:c5:21:42:ec:e6:95:b0:21:60:b8:d2:3a:59:
         af:3e:d6:f6:6e:00:b5:cb:d1:50:86:51:71:36:cc:c6:74:53:
         e8:52:73:10:a3:6b:83:23:0d:00:39:5b:2f:64:89:1b:8c:8f:
         c5:43:5b:18:c4:e6:23:fc:66:94:96:15:e7:65:4d:c6:e3:d8:
         8a:34:87:90:a2:ea:fb:0a:25:c3:97:cf:0c:b2:8d:ad:75:a7:
         5d:88:84:72:66:a9:df:2d:1c:5c:84:6d:a8:e7:31:01:f7:0f:
         f7:6f:9f:06:e4:bf:2e:36:8f:c8:5a:30:52:f3:73:30:af:4d:
         91:98:24:d6:b8:da:01:da:6c:4e:55:52:3a:74:c1:06:6e:73:
         50:a8:01:80
-----BEGIN CERTIFICATE-----
MIIEGTCCAwGgAwIBAgIEEAAAwzANBgkqhkiG9w0BAQUFADBEMQswCQYDVQQGEwJE
RTEPMA0GA1UECAwGSGVzc2VuMRQwEgYDVQQKDAtwcml2YWN5aWRlYTEOMAwGA1UE
AwwFQ0EwMDEwHhcNMTUxMjIxMTYzMTQ1WhcNMTYxMjIwMTYzMTQ1WjBHMQswCQYD
VQQGEwJERTEPMA0GA1UECAwGSGVzc2VuMRQwEgYDVQQKDAtwcml2YWN5aWRlYTER
MA8GA1UEAwwIdXNlcmNlcnQwggEiMA0GCSqGSIb3DQEBAQUAA4IBDwAwggEKAoIB
AQDcL9FfKZfUfMNTyDC9S2dwLCRruF7rIXpIElZ8gVxIdbZo6/bymE5QUdF/bHPz
Cqeuvkhe5dbh2Sp8Mm5O/Qj2WlRJI3PDuQcY0e+zrPiK3JSWpJA6jnTf5g03G71b
tyUaVjnab5GqXhx08/l8FAGDEmV2x7v+NluV6XJlg+0+mDBx+ofdozZaMAMuJuBh
0b8CP7YGH0qJKBxcov9OvpTmjODagvGdKTJIMHO0BPZCHr734jIyJzydiS9wPoWa
b1zFCcCMMi9yIsnSlR+2rHJgcreCTWvOW+MA0NIvWMbgEOVRyk07LuZ+q4TWVvGT
NaCTZCaBdS+RtRYGOAvbzC0HAgMBAAGjggEOMIIBCjALBgNVHQ8EBAMCBaAwCQYD
VR0TBAIwADARBglghkgBhvhCAQEEBAMCBkAwMwYJYIZIAYb4QgENBCYWJE9wZW5T
U0wgR2VuZXJhdGVkIFNlcnZlciBDZXJ0aWZpY2F0ZTAdBgNVHQ4EFgQU/BTR8EuN
AJDy9bhxnk6Xw5JUrQswdAYDVR0jBG0wa4AU9KfAzJFGr2TzkfIn+Miyb4qHMnOh
SKRGMEQxCzAJBgNVBAYTAkRFMQ8wDQYDVQQIDAZIZXNzZW4xFDASBgNVBAoMC3By
aXZhY3lpZGVhMQ4wDAYDVQQDDAVDQTAwMYIJAPvI66yDzRIHMBMGA1UdJQQMMAoG
CCsGAQUFBwMBMA0GCSqGSIb3DQEBBQUAA4IBAQAc4n4yzNM8QhXzUZoYTFqW92/n
gssZiBQN4BsgKCzoS5VOXTsWqaezksAphjkQtX7P/L41b3In8HBs4+/p+m8CZCTv
mNUBGl7Ox2VxeevZDuADIEn06HqCf8SmzKeTpKykdFV5ArPQtJ33nnmsLDWYJMUh
QuzmlbAhYLjSOlmvPtb2bgC1y9FQhlFxNszGdFPoUnMQo2uDIw0AOVsvZIkbjI/F
Q1sYxOYj/GaUlhXnZU3G49iKNIeQour7CiXDl88Mso2tdaddiIRyZqnfLRxchG2o
5zEB9w/3b58G5L8uNo/IWjBS83Mwr02RmCTWuNoB2mxOVVI6dMEGbnNQqAGA
-----END CERTIFICATE-----
